A51 MACRO ASSEMBLER  12864                                                                03/29/2005 16:02:36 PAGE     1


MACRO ASSEMBLER A51 V7.10
OBJECT MODULE PLACED IN 12864.OBJ
ASSEMBLER INVOKED BY: C:\Keil\C51\BIN\A51.EXE 12864.asm SET(SMALL) DEBUG EP

LOC  OBJ            LINE     SOURCE

                       1     ;********************************************************************************      
                       2     ;*  标题:  伟纳电子ME300B单片机开发系统演示程序 - 12864LCD(不带字库）演示       *      
                       3     ;*  文件:  wl015.asm                                                            *      
                       4     ;*  日期:  2005-3-20                                                            *      
                       5     ;*  版本:  1.0                                                                  *      
                       6     ;*  作者:  sauwa                                                                *      
                       7     ;*  邮箱:  sauwa@willar.com                                                     *      
                       8     ;*  网站： http://www.willar.com                                                *      
                       9     ;********************************************************************************      
                      10     ;*  描述:                                                                       *      
                      11     ;*         12864LCD(不带字库）演示程序                                          *      
                      12     ;*                                                                              *      
                      13     ;*          控制器：KS0107                                                      *
                      14     ;*          LCD型号：TS12864A-2或兼容型号                                       *
                      15     ;*          MCU:AT89S52 ,晶体频率：11.0592MHz                                   *
                      16     ;*          取模方式：纵向字节倒序                                              *
                      17     ;*          CS1和CS2为高电平有效                                                *          
                                                                                              *      
                      18     ;*                                                                              *      
                      19     ;********************************************************************************      
                      20     ;* 【版权】 Copyright(C)伟纳电子 www.willar.com  All Rights Reserved            *      
                      21     ;* 【声明】 此程序仅用于学习与参考，引用请注明版权和作者信息！                  *      
                      22     ;********************************************************************************      
                      23     
                      24             
                      25     ;***************硬件端口定义***********
  00A0                26               RS       EQU   P2.0
  00A1                27               RW       EQU   P2.1
  00A2                28               E        EQU   P2.2
  00A3                29               CS1      EQU   P2.3
  00A4                30               CS2      EQU   P2.4
  00A5                31               RST      EQU   P2.5   
  0020                32               COM      EQU   20H    ;指令数据寄存器
  0021                33               DAT      EQU   21H    ;显示数据寄存器
                      34     
                      35     ;**********************************主程序入口地址 
0000                  36             ORG     0000H  
0000 0103             37             AJMP    STR  
0003                  38             ORG     0003H           
                      39          
                      40     ;*********************************中断程序入口地址
0003                  41     STR:    
0003 0105             42             AJMP    L0100
                      43       
0005 C2A5             44     L0100:  CLR     RST
0007 00               45             NOP
0008 00               46             NOP
0009 D2A5             47             SETB    RST
                      48             
                      49     ;********************************以上是软件复位
000B 758160           50             MOV     SP,#60H
000E 75A881           51             MOV     IE,#81H            ;中断允许
0011 75B801           52             MOV     IP,#01H            ;优先中断
0014 758800           53             MOV     TCON,#00H          ;电平中断
0017 75203F           54             MOV     COM,#3FH         ;显示开
001A 120110           55             LCALL   S02A9            ;左半屏写指令子程序
001D 120120           56             LCALL   S02C1            ;右半屏写指令子程序
                      57     ;----------------------------------------------------------------------
A51 MACRO ASSEMBLER  12864                                                                03/29/2005 16:02:36 PAGE     2

0020 7520C0           58             MOV     COM,#0C0H        ;第一行        
0023 120110           59             LCALL   S02A9            ;左半屏写指令子程序
0026 120120           60             LCALL   S02C1            ;右半屏写指令子程序
                      61     ;----------------------------------------------------------------------
0029 7520B8           62             MOV     COM,#0B8H       ;第一页        
002C 120110           63             LCALL   S02A9           ;左半屏写指令子程序
002F 120120           64             LCALL   S02C1           ;右半屏写指令子程序
                      65     ;----------------------------------------------------------------------
0032 752040           66             MOV     COM,#40H        ;第一列
0035 120110           67             LCALL   S02A9           ;左半屏写指令子程序
0038 120120           68             LCALL   S02C1           ;右半屏写指令子程序
                      69     ;********************************************************以上是软件初始化
003B 75F0AA           70             MOV     B,#0AAH
003E 1200BD           71             LCALL   XIHX            ;显示横线1
0041 120168           72             LCALL   DELAY 
                      73           ; MOV     B,#55H
                      74            ; LCALL   XIHX    
                      75            ; LCALL   DELAY           ;显示横线2
0044 75F0FF           76             MOV     B,#0FFH
0047 752900           77             MOV     29H,#00H       
004A 1200E2           78             LCALL   XISX    
004D 120168           79             LCALL   DELAY            ;显示竖线1
                      80            ; MOV     B,#00H
                      81            ; MOV     29H,#0FFH
                      82           ; LCALL   XISX    
                      83            ; LCALL   DELAY            ;显示竖线2
                      84     
0050 900175           85             MOV     DPTR,#TAB1
0053 12007F           86             LCALL   LEFT
0056 900375           87             MOV     DPTR,#TAB2
0059 12009E           88             LCALL   RIGHT       
005C 120168           89             LCALL   DELAY             ;显示第一幅图片
                      90     
005F 900575           91             MOV     DPTR,#TAB3
0062 12007F           92             LCALL   LEFT
0065 900775           93             MOV     DPTR,#TAB4
0068 12009E           94             LCALL   RIGHT       
006B 120168           95             LCALL   DELAY              ;显示第二幅图片
                      96     
006E 900975           97             MOV     DPTR,#TAB5
0071 12007F           98             LCALL   LEFT
0074 900B75           99             MOV     DPTR,#TAB6
0077 12009E          100             LCALL   RIGHT       
007A 120168          101             LCALL   DELAY              ;显示第三幅图片
007D 0105            102             AJMP    L0100
                     103     ;=======================================================以上是主程序
007F 79B8            104     LEFT:   MOV     R1,#0B8H
0081 8920            105     _AB:     MOV     COM,R1          ;第一页        
0083 120110          106             LCALL   S02A9           ;左半屏写指令子程序     
0086 752040          107             MOV     COM,#40H        ;第一列
0089 120110          108             LCALL   S02A9           ;左半屏写指令子程序      
008C 7840            109             MOV     R0, #64 
008E 7400            110     S027B:  MOV     A,#00H
0090 93              111             MOVC    A,@A+DPTR               
0091 F521            112             MOV     DAT,A        
0093 120118          113             LCALL   S02B1           ;左半屏写数据子程序         
0096 A3              114             INC     DPTR    
0097 D8F5            115             DJNZ    R0,S027B
0099 09              116             INC     R1        
009A B9C0E4          117             CJNE    R1, #0C0H,_AB      
009D 22              118             RET
                     119     ;======================================================以上是左半屏写数据子程序
009E 79B8            120     RIGHT:  MOV     R1,#0B8H
00A0 8920            121     ABC:    MOV     COM,R1          ;第一页        
00A2 120120          122             LCALL   S02C1           ;右半屏写指令子程序     
00A5 752040          123             MOV     COM,#40H        ;第一列
A51 MACRO ASSEMBLER  12864                                                                03/29/2005 16:02:36 PAGE     3

00A8 120120          124             LCALL   S02C1           ;右半屏写指令子程序      
00AB 7840            125             MOV     R0, #64 
00AD 7400            126     S027D:  MOV     A,#00H
00AF 93              127             MOVC    A,@A+DPTR               
00B0 F521            128             MOV     DAT,A        
00B2 120128          129             LCALL   S02B9           ;右半屏写数据子程序         
00B5 A3              130             INC     DPTR    
00B6 D8F5            131             DJNZ    R0,S027D
00B8 09              132             INC     R1        
00B9 B9C0E4          133             CJNE    R1, #0C0H,ABC       
00BC 22              134             RET
                     135     
                     136     ;*******************************************************以上是右半屏写数据子程序
                     137     
00BD 79B8            138     XIHX:   MOV     R1,#0B8H       
00BF 8920            139     BA:     MOV     COM,R1          ;第一页        
00C1 120110          140             LCALL   S02A9           ;左半屏写指令子程序
00C4 120120          141             LCALL   S02C1           ;右半屏写指令子程序
00C7 752040          142             MOV     COM,#40H        ;第一列
00CA 120110          143             LCALL   S02A9           ;左半屏写指令子程序 
00CD 120120          144             LCALL   S02C1           ;右半屏写指令子程序
00D0 7840            145             MOV     R0, #64 
00D2 85F021          146     W027B:  MOV     DAT,B        
00D5 120118          147             LCALL   S02B1           ;左半屏写数据子程序         
00D8 120128          148             LCALL   S02B9           ;右半屏写数据子程序    
00DB D8F5            149             DJNZ    R0,W027B
00DD 09              150             INC     R1        
00DE B9C0DE          151             CJNE    R1, #0C0H,BA      
00E1 22              152             RET 
                     153     ;--------------------------------------------------------- 
00E2 79B8            154     XISX:   MOV     R1,#0B8H       
00E4 8920            155     CA:     MOV     COM,R1          ;第一页        
00E6 120110          156             LCALL   S02A9           ;左半屏写指令子程序
00E9 120120          157             LCALL   S02C1           ;右半屏写指令子程序
00EC 752040          158             MOV     COM,#40H        ;第一列
00EF 120110          159             LCALL   S02A9           ;左半屏写指令子程序 
00F2 120120          160             LCALL   S02C1           ;右半屏写指令子程序
00F5 7820            161             MOV     R0, #32 
00F7 85F021          162     X027B:  MOV     DAT,B        
00FA 120118          163             LCALL   S02B1           ;左半屏写数据子程序         
00FD 120128          164             LCALL   S02B9           ;右半屏写数据子程序   
0100 852921          165             MOV     DAT,29H
0103 120118          166             LCALL   S02B1           ;左半屏写数据子程序         
0106 120128          167             LCALL   S02B9           ;右半屏写数据子程序
0109 D8EC            168             DJNZ    R0,X027B
010B 09              169             INC     R1        
010C B9C0D5          170             CJNE    R1, #0C0H,CA      
010F 22              171             RET  
                     172     ;****************************************************以上是显示线条程序
0110 D2A3            173     S02A9:  SETB    CS1
0112 120130          174             LCALL   S02C9
0115 C2A3            175             CLR     CS1         ;左半屏写指令子程序
0117 22              176             RET   
                     177       
0118 D2A3            178     S02B1:  SETB    CS1         ;左半屏写数据子程序        
011A 12014B          179             LCALL   S02E0  
011D C2A3            180             CLR     CS1     
011F 22              181             RET  
                     182     
0120 D2A4            183     S02C1:  SETB    CS2         ;右半屏写指令子程序        
0122 120130          184             LCALL   S02C9  
0125 C2A4            185             CLR     CS2      
0127 22              186             RET    
                     187     
0128 D2A4            188     S02B9:  SETB    CS2         ;右半屏写数据子程序       
012A 12014B          189             LCALL   S02E0    
A51 MACRO ASSEMBLER  12864                                                                03/29/2005 16:02:36 PAGE     4

012D C2A4            190             CLR     CS2
012F 22              191             RET     
                     192     ;**************************************************** 
                     193     
0130 C2A0            194     S02C9:  CLR     RS         
0132 D2A1            195             SETB    RW        
0134 7580FF          196     S02C9A: MOV     P0,#0FFH
0137 D2A2            197             SETB    E
0139 E580            198             MOV     A, P0
013B C2A2            199             CLR     E
013D 20E7F4          200             JB      ACC.7,S02C9A
0140 C2A1            201             CLR     RW
0142 852080          202             MOV     P0,COM       
0145 D2A2            203             SETB    E
0147 00              204             NOP
0148 C2A2            205             CLR     E
014A 22              206             RET     
                     207     ;*************************************************以上是写指令子程序
014B C2A0            208     S02E0:  CLR     RS         
014D D2A1            209             SETB    RW        
014F 7580FF          210     S02E0A: MOV     P0,#0FFH
0152 D2A2            211             SETB    E
0154 E580            212             MOV     A, P0
0156 C2A2            213             CLR     E
0158 20E7F4          214             JB      ACC.7,S02E0A
015B D2A0            215             SETB    RS
015D C2A1            216             CLR     RW
015F 852180          217             MOV     P0,DAT      
0162 D2A2            218             SETB    E
0164 00              219             NOP
0165 C2A2            220             CLR     E
0167 22              221             RET      
                     222               
                     223     ;************************************************以上是写数据子程序
                     224     
0168 7D0B            225     DELAY:  MOV     R5,#0BH            ;延时
016A 7FFF            226     D1:     MOV     R7,#0FFH
016C 7EFF            227     D2:     MOV     R6,#0FFH
016E DEFE            228     D3:     DJNZ    R6,$
0170 DFFA            229             DJNZ    R7,D2
0172 DDF6            230             DJNZ    R5,D1
0174 22              231             RET     
                     232      ;****************************************************************  
0175                 233     TAB1:
                     234     ;--  调入菲戈幅图像左半屏：纵向取模下高位,数据排列:从左到右从上到下 
                     235     ;--  宽度x高度=64x64 
0175 00000000        236             db       00h, 00h, 00h, 00h, 00h, 00h, 00h, 00h, 00h, 00h, 00h, 00h, 00h, 80h, 20h,
                              0Ah
0179 00000000                
017D 00000000                
0181 0080200A                
0185 4A3C40BE        237             db       4Ah, 3Ch, 40h,0BEh, 00h, 54h, 00h, 24h, 42h,0A8h, 00h,0EEh, 00h, 42h, 06h,
                              48h
0189 00540024                
018D 42A800EE                
0191 00420648                
0195 12441244        238             db       12h, 44h, 12h, 44h,0A8h, 02h, 20h, 04h, 22h,0C0h, 82h,0E4h,0C0h,0E0h,0C0h,
                             0C0h
0199 A8022004                
019D 22C082E4                
01A1 C0E0C0C0                
01A5 A0C0C080        239             db       0A0h,0C0h,0C0h, 80h,0A0h, 00h, 00h, 20h, 00h, 00h, 04h, 48h, 12h, 2Ch, 1Ah
                             , 1Ch
01A9 A0000020                
01AD 00000448                
01B1 122C1A1C                
A51 MACRO ASSEMBLER  12864                                                                03/29/2005 16:02:36 PAGE     5

01B5 00000000        240             db       00h, 00h, 00h, 00h, 00h, 00h, 00h, 00h, 00h, 00h, 00h, 00h, 00h, 00h, 01h,
                              00h
01B9 00000000                
01BD 00000000                
01C1 00000100                
01C5 01000005        241             db       01h, 00h, 00h, 05h, 00h, 01h, 00h, 00h, 00h, 02h, 00h, 01h, 05h, 00h, 01h,
                              00h
01C9 00010000                
01CD 00020001                
01D1 05000100                
01D5 01040002        242             db       01h, 04h, 00h, 02h, 28h, 01h,0A8h, 10h,0FEh,0FDh,0DFh, 1Fh, 3Fh, 7Fh, 0Fh,
                              8Bh
01D9 2801A810                
01DD FEFDDF1F                
01E1 3F7F0F8B                
01E5 03232303        243             db       03h, 23h, 23h, 03h, 00h, 00h, 00h, 00h, 00h, 00h, 00h, 00h, 00h, 00h, 20h,
                             0FDh
01E9 00000000                
01ED 00000000                
01F1 000020FD                
01F5 00000000        244             db       00h, 00h, 00h, 00h, 00h, 00h, 00h, 00h, 00h, 00h, 00h, 00h, 00h, 00h, 00h,
                              00h
01F9 00000000                
01FD 00000000                
0201 00000000                
0205 00000000        245             db       00h, 00h, 00h, 00h, 00h, 00h, 00h, 00h, 80h, 00h, 20h,0A0h,0E8h, 68h,0F4h,
                             0F0h
0209 00000000                
020D 800020A0                
0211 E868F4F0                
0215 F8F078E0        246             db       0F8h,0F0h, 78h,0E0h,0D0h, 14h,0A0h, 20h, 43h, 11h, 20h, 71h, 74h, 76h, 7Ch
                             , 9Ch
0219 D014A020                
021D 43112071                
0221 74767C9C                
0225 42D42180        247             db       42h,0D4h, 21h, 80h, 00h, 00h, 00h, 00h, 00h, 00h, 00h, 00h, 00h, 00h,0FFh,
                             0D2h
0229 00000000                
022D 00000000                
0231 0000FFD2                
0235 00000000        248             db       00h, 00h, 00h, 00h, 00h, 00h, 00h, 00h, 00h, 00h, 00h, 00h, 00h, 00h, 00h,
                              00h
0239 00000000                
023D 00000000                
0241 00000000                
0245 008000C0        249             db       00h, 80h, 00h,0C0h, 80h, 40h,0B8h,0F8h,0F8h,0BCh, 3Eh, 3Fh, 3Eh,0FFh,0FFh,
                             0FFh
0249 8040B8F8                
024D F8BC3E3F                
0251 3EFFFFFF                
0255 FFFFFFFE        250             db       0FFh,0FFh,0FFh,0FEh,0FDh,0FCh,0F9h,0F9h,0FDh,0F9h,0FAh,0C1h, 0Ah, 9Ah,0F9h
                             ,0F3h
0259 FDFCF9F9                
025D FDF9FAC1                
0261 0A9AF9F3                
0265 E4E0E2FC        251             db       0E4h,0E0h,0E2h,0FCh,0FFh,0FFh, 7Fh,0DFh,0FCh,0C0h, 00h, 00h, 01h, 48h, 33h
                             ,0BFh
0269 FFFF7FDF                
026D FCC00000                
0271 014833BF                
0275 00000000        252             db       00h, 00h, 00h, 00h, 00h, 00h, 00h, 00h, 00h, 00h, 00h, 00h, 00h, 40h, 08h,
                              00h
0279 00000000                
027D 00000000                
0281 00400800                
0285 02010301        253             db       02h, 01h, 03h, 01h, 01h, 04h,0A1h, 0Ah, 24h, 0Bh, 1Ah, 41h, 9Eh,0DFh, 97h,
A51 MACRO ASSEMBLER  12864                                                                03/29/2005 16:02:36 PAGE     6

                             0A9h
0289 0104A10A                
028D 240B1A41                
0291 9EDF97A9                
0295 5E53F5D7        254             db       5Eh, 53h,0F5h,0D7h, 7Fh,0FFh,0FFh,0FFh,0FFh,0FFh,0FFh,0FCh,0FEh,0FFh,0FFh,
                             0FFh
0299 7FFFFFFF                
029D FFFFFFFC                
02A1 FEFFFFFF                
02A5 FFFF3FBF        255             db       0FFh,0FFh, 3Fh,0BFh,0FFh, 0Fh, 07h, 0Eh, 00h, 08h, 00h, 00h, 00h, 00h,0C2h
                             , 3Fh
02A9 FF0F070E                
02AD 00080000                
02B1 0000C23F                
02B5 00000000        256             db       00h, 00h, 00h, 00h, 00h, 00h, 00h, 00h, 00h, 00h, 00h, 00h, 00h, 00h, 00h,
                              00h
02B9 00000000                
02BD 00000000                
02C1 00000000                
02C5 20000000        257             db       20h, 00h, 00h, 00h, 00h, 00h, 12h, 00h, 00h, 02h,0C6h, 06h, 22h, 35h, 05h,
                              23h
02C9 00001200                
02CD 0002C606                
02D1 22350523                
02D5 232C3366        258             db       23h, 2Ch, 33h, 66h,0D7h,0FFh,0F7h,0DFh,0FFh,0CFh,0EFh,0EFh,0FFh,0FFh,0FFh,
                              1Fh
02D9 D7FFF7DF                
02DD FFCFEFEF                
02E1 FFFFFF1F                
02E5 0F8A2000        259             db       0Fh, 8Ah, 20h, 00h, 44h, 8Ch, 04h, 00h, 00h, 00h, 00h, 80h, 00h, 40h, 12h,
                              44h
02E9 448C0400                
02ED 00000080                
02F1 00401244                
02F5 00000000        260             db       00h, 00h, 00h, 00h, 00h, 00h, 00h, 00h, 00h, 00h, 00h, 00h, 00h, 00h, 40h,
                              40h
02F9 00000000                
02FD 00000000                
0301 00004040                
0305 40E04040        261             db       40h,0E0h, 40h, 40h, 40h,0E0h, 40h, 40h, 40h, 00h, 01h, 10h, 01h, 00h, 01h,
                              00h
0309 40E04040                
030D 40000110                
0311 01000100                
0315 E00000A0        262             db       0E0h, 00h, 00h,0A0h,0C3h,0BFh,0BFh, 07h, 3Fh, 3Fh, 3Fh, 1Fh, 05h, 02h, 00h
                             , 00h
0319 C3BFBF07                
031D 3F3F3F1F                
0321 05020000                
0325 00000100        263             db       00h, 00h, 01h, 00h, 00h, 00h, 00h, 00h, 00h, 00h, 00h, 00h, 01h, 00h, 00h,
                              00h
0329 00000000                
032D 00000000                
0331 01000000                
0335 00000000        264             db       00h, 00h, 00h, 00h, 00h, 00h, 00h, 00h, 00h, 00h, 00h, 00h, 00h, 00h, 22h,
                              2Ah
0339 00000000                
033D 00000000                
0341 0000222A                
0345 2A2AFF00        265             db       2Ah, 2Ah,0FFh, 00h,0FFh, 2Ah, 2Ah, 2Ah, 22h, 00h, 00h, 00h, 81h, 81h, 41h,
                              41h
0349 FF2A2A2A                
034D 22000000                
0351 81814141                
0355 231D3148        266             db       23h, 1Dh, 31h, 48h, 84h, 82h,0E0h, 00h, 00h, 00h, 00h, 00h, 00h, 00h, 00h,
                              00h
A51 MACRO ASSEMBLER  12864                                                                03/29/2005 16:02:36 PAGE     7

0359 8482E000                
035D 00000000                
0361 00000000                
0365 00000000        267             db       00h, 00h, 00h, 00h, 00h, 00h, 00h, 00h, 00h, 00h, 00h, 00h, 00h, 00h, 00h,
                              00h
0369 00000000                
036D 00000000                
0371 00000000                
                     268     
0375                 269     TAB2:
                     270     ;--  调入菲戈幅图像右半屏：纵向取模下高位,数据排列:从左到右从上到下 
                     271     ;--  宽度x高度=64x64 
0375 76BCFCEE        272             db       76h,0BCh,0FCh,0EEh, 80h,0F6h,0F6h,0FEh,0FEh,0FFh, 80h,0FFh, 7Eh,0FFh, 81h,
                              3Eh
0379 80F6F6FE                
037D FEFF80FF                
0381 7EFF813E                
0385 3E36453F        273             db       3Eh, 36h, 45h, 3Fh, 1Fh, 3Fh, 01h, 3Eh, 3Eh, 3Eh, 41h, 7Fh,0FFh, 7Fh,0FFh,
                              7Fh
0389 1F3F013E                
038D 3E3E417F                
0391 FF7FFF7F                
0395 7F3F1F3F        274             db       7Fh, 3Fh, 1Fh, 3Fh, 1Fh, 9Fh, 3Fh, 9Fh, 1Fh, 3Fh, 5Fh, 1Fh, 7Fh, 7Fh,0FFh,
                             0FFh
0399 1F9F3F9F                
039D 1F3F5F1F                
03A1 7F7FFFFF                
03A5 FFFF0000        275             db       0FFh,0FFh, 00h, 00h, 00h, 00h, 00h, 00h, 00h, 00h, 00h, 00h, 00h, 00h, 00h
                             , 00h
03A9 00000000                
03AD 00000000                
03B1 00000000                
03B5 A3FEFFFF        276             db       0A3h,0FEh,0FFh,0FFh,0FFh,0FFh,0FFh,0FFh,0BFh,0D3h, 41h, 02h, 01h, 00h, 00h
                             , 00h
03B9 FFFFFFFF                
03BD BFD34102                
03C1 01000000                
03C5 00000000        277             db       00h, 00h, 00h, 00h, 00h, 00h, 00h, 00h, 00h, 00h, 00h, 00h, 20h, 00h, 20h,
                              00h
03C9 00000000                
03CD 00000000                
03D1 20002000                
03D5 40000800        278             db       40h, 00h, 08h, 00h, 40h, 04h, 08h, 12h, 00h, 04h, 00h, 00h, 00h, 00h, 00h,
                              03h
03D9 40040812                
03DD 00040000                
03E1 00000003                
03E5 0F7F0000        279             db       0Fh, 7Fh, 00h, 00h, 00h, 00h, 00h, 00h, 00h, 00h, 00h, 00h, 00h, 00h, 00h,
                              00h
03E9 00000000                
03ED 00000000                
03F1 00000000                
03F5 FFFFFFFF        280             db       0FFh,0FFh,0FFh,0FFh,0FFh,0FFh,0FFh,0FFh,0FFh,0FFh, 0Dh, 24h, 00h, 00h, 80h
                             ,0A0h
03F9 FFFFFFFF                
03FD FFFF0D24                
0401 000080A0                
0405 40E07070        281             db       40h,0E0h, 70h, 70h, 60h,0F8h,0F0h,0F0h,0F8h,0F0h,0F0h,0E0h,0F8h,0F0h, 68h,
                              00h
0409 60F8F0F0                
040D F8F0F0E0                
0411 F8F06800                
0415 8008B0B8        282             db       80h, 08h,0B0h,0B8h,0F0h,0F4h,0F0h,0FCh,0F9h,0F8h,0BAh,0F8h,0DCh,0B8h, 70h,
                              90h
0419 F0F4F0FC                
041D F9F8BAF8                
A51 MACRO ASSEMBLER  12864                                                                03/29/2005 16:02:36 PAGE     8

0421 DCB87090                
0425 204B0000        283             db       20h, 4Bh, 00h, 00h, 00h, 00h, 00h, 00h, 00h, 00h, 00h, 00h, 00h, 00h, 00h,
                              00h
0429 00000000                
042D 00000000                
0431 00000000                
0435 3F3F7F7F        284             db       3Fh, 3Fh, 7Fh, 7Fh,0FFh,0FFh,0FFh,0FFh, 5Fh, 00h, 00h, 01h, 00h, 05h, 02h,
                              05h
0439 FFFFFFFF                
043D 5F000001                
0441 00050205                
0445 050E0307        285             db       05h, 0Eh, 03h, 07h, 0Bh, 0Bh, 97h, 0Fh, 25h, 0Bh, 0Bh, 0Fh, 03h, 02h, 00h,
                              80h
0449 0B0B970F                
044D 250B0B0F                
0451 03020080                
0455 00140001        286             db       00h, 14h, 00h, 01h, 0Bh, 0Bh, 1Dh, 1Bh,0E7h, 0Fh, 5Bh, 03h, 03h, 03h, 05h,
                              04h
0459 0B0B1D1B                
045D E70F5B03                
0461 03030504                
0465 00000000        287             db       00h, 00h, 00h, 00h, 00h, 00h, 00h, 00h, 00h, 00h, 00h, 00h, 00h, 00h, 00h,
                              00h
0469 00000000                
046D 00000000                
0471 00000000                
0475 E302A660        288             db       0E3h, 02h,0A6h, 60h,0F4h, 41h, 07h, 7Fh,0FDh, 50h,0C2h, 28h, 20h, 80h, 20h
                             , 00h
0479 F441077F                
047D FD50C228                
0481 20802000                
0485 80008000        289             db       80h, 00h, 80h, 00h, 00h, 00h, 04h, 00h,0A0h, 40h, 18h, 20h, 21h, 70h, 30h,
                             0E0h
0489 00000400                
048D A0401820                
0491 217030E0                
0495 3AE039E0        290             db       3Ah,0E0h, 39h,0E0h, 38h, 70h, 30h, 00h, 10h, 45h, 89h, 12h, 04h, 10h, 00h,
                              00h
0499 38703000                
049D 10458912                
04A1 04100000                
04A5 00000000        291             db       00h, 00h, 00h, 00h, 00h, 00h, 00h, 00h, 00h, 00h, 00h, 00h, 00h, 00h, 00h,
                              00h
04A9 00000000                
04AD 00000000                
04B1 00000000                
04B5 11040901        292             db       11h, 04h, 09h, 01h, 53h, 84h,0C0h, 88h, 61h,0D5h, 24h, 49h, 22h, 88h, 10h,
                              42h
04B9 5384C088                
04BD 61D52449                
04C1 22881042                
04C5 00002400        293             db       00h, 00h, 24h, 00h, 00h, 00h, 00h, 44h,0A8h,0E0h,0C2h, 48h,0D1h, 64h, 60h,
                              64h
04C9 00000044                
04CD A8E0C248                
04D1 D1646064                
04D5 526D60EB        294             db       52h, 6Dh, 60h,0EBh,0B2h, 74h,0E4h, 60h,0CCh, 70h,0C0h, 82h, 08h, 00h, 00h,
                              00h
04D9 B274E460                
04DD CC70C082                
04E1 08000000                
04E5 00000000        295             db       00h, 00h, 00h, 00h, 00h, 00h, 00h, 00h, 00h, 00h, 00h, 00h, 00h, 00h, 00h,
                              00h
04E9 00000000                
04ED 00000000                
04F1 00000000                
A51 MACRO ASSEMBLER  12864                                                                03/29/2005 16:02:36 PAGE     9

04F5 00000000        296             db       00h, 00h, 00h, 00h, 00h, 00h, 01h, 03h, 04h, 05h, 10h, 05h, 50h, 80h, 14h,
                              01h
04F9 00000103                
04FD 04051005                
0501 50801401                
0505 28100148        297             db       28h, 10h, 01h, 48h,0A0h, 00h,0A5h, 00h, 40h, 00h, 08h, 80h, 10h, 06h, 04h,
                              2Fh
0509 A000A500                
050D 40000880                
0511 1006042F                
0515 8E1F2ECE        298             db       8Eh, 1Fh, 2Eh,0CEh, 1Dh,0A6h, 16h, 0Ch, 22h, 48h,0B2h, 04h, 00h, 00h, 00h,
                              00h
0519 1DA6160C                
051D 2248B204                
0521 00000000                
0525 00000000        299             db       00h, 00h, 00h, 00h, 00h, 00h, 00h, 00h, 00h, 00h, 00h, 00h, 00h, 00h, 00h,
                              00h
0529 00000000                
052D 00000000                
0531 00000000                
0535 00000000        300             db       00h, 00h, 00h, 00h, 00h, 00h, 40h, 20h, 28h, 08h, 00h, 00h, 00h, 00h, 02h,
                              15h
0539 00004020                
053D 28080000                
0541 00000215                
0545 22042A18        301             db       22h, 04h, 2Ah, 18h, 22h, 5Ch, 52h, 2Ch, 52h, 38h, 64h, 52h, 7Ch, 61h, 3Ah,
                              6Ch
0549 225C522C                
054D 52386452                
0551 7C613A6C                
0555 79767D7E        302             db       79h, 76h, 7Dh, 7Eh, 7Ch, 7Bh, 7Eh, 7Ah, 7Ah, 74h, 7Ch, 52h, 2Ch, 0Ah, 00h,
                              00h
0559 7C7B7E7A                
055D 7A747C52                
0561 2C0A0000                
0565 001E0000        303             db       00h, 1Eh, 00h, 00h, 00h, 00h, 00h, 00h, 00h, 00h, 00h, 00h, 00h, 00h, 00h,
                              00h
0569 00000000                
056D 00000000                
0571 00000000                
                     304     
0575                 305     TAB3:
                     306     ;--  调入了ME300B宣传文字图像：纵向取模下高位,数据排列:从左到右从上到下 
                     307     ;--  宽度x高度=64x64 
0575 FF010101        308             db       0FFh, 01h, 01h, 01h,0C1h, 01h, 01h, 01h,0C1h, 01h,0C1h, 41h, 41h, 41h, 41h
                             , 01h
0579 C1010101                
057D C101C141                
0581 41414101                
0585 81414141        309             db       81h, 41h, 41h, 41h, 81h, 01h, 81h, 41h, 41h, 41h, 81h, 01h, 81h, 41h, 41h,
                              41h
0589 81018141                
058D 41418101                
0591 81414141                
0595 8101C141        310             db       81h, 01h,0C1h, 41h, 41h, 41h, 81h, 01h, 01h, 01h, 01h,0C1h, 41h, 61h,0C1h,
                              41h
0599 41418101                
059D 010101C1                
05A1 4161C141                
05A5 6141C101        311             db       61h, 41h,0C1h, 01h, 01h, 01h, 01h, 01h,0E1h, 01h, 01h, 01h,0F1h, 01h, 01h,
                              01h
05A9 01010101                
05AD E1010101                
05B1 F1010101                
05B5 FF000000        312             db       0FFh, 00h, 00h, 00h, 3Fh, 03h, 3Ch, 03h, 3Fh, 00h, 3Fh, 22h, 22h, 22h, 20h
                             , 00h
A51 MACRO ASSEMBLER  12864                                                                03/29/2005 16:02:36 PAGE    10

05B9 3F033C03                
05BD 3F003F22                
05C1 22222000                
05C5 18202222        313             db       18h, 20h, 22h, 22h, 1Dh, 00h, 1Fh, 20h, 20h, 20h, 1Fh, 00h, 1Fh, 20h, 20h,
                              20h
05C9 1D001F20                
05CD 20201F00                
05D1 1F202020                
05D5 1F003F22        314             db       1Fh, 00h, 3Fh, 22h, 22h, 22h, 1Dh, 00h, 00h, 00h, 10h, 17h, 15h, 15h, 7Fh,
                              15h
05D9 22221D00                
05DD 00001017                
05E1 15157F15                
05E5 15151710        315             db       15h, 15h, 17h, 10h, 00h, 00h, 40h, 70h, 0Fh, 05h, 05h, 05h, 04h, 7Dh, 01h,
                              00h
05E9 00004070                
05ED 0F050505                
05F1 047D0100                
05F5 FF000000        316             db       0FFh, 00h, 00h, 00h, 00h, 02h, 02h, 02h, 02h, 02h, 02h, 02h, 02h, 02h, 02h
                             , 02h
05F9 00020202                
05FD 02020202                
0601 02020202                
0605 02020202        317             db       02h, 02h, 02h, 02h, 02h, 02h, 02h, 82h, 62h, 22h,0A2h, 22h, 32h,0A2h, 22h,
                              22h
0609 02020282                
060D 6222A222                
0611 32A22222                
0615 A2620212        318             db       0A2h, 62h, 02h, 12h,0D2h, 12h,0F2h, 02h, 82h, 42h, 32h, 42h, 82h, 02h, 02h
                             , 02h
0619 D212F202                
061D 82423242                
0621 82020202                
0625 02020202        319             db       02h, 02h, 02h, 02h, 02h, 02h, 02h, 02h, 02h, 02h, 02h, 82h, 42h, 32h, 82h,
                             0E2h
0629 02020202                
062D 02020282                
0631 423282E2                
0635 FF000000        320             db       0FFh, 00h, 00h, 00h, 00h, 00h, 00h, 00h, 00h, 00h, 00h, 00h, 00h, 00h, 00h
                             , 00h
0639 00000000                
063D 00000000                
0641 00000000                
0645 00000000        321             db       00h, 00h, 00h, 00h, 00h, 00h, 00h, 08h, 48h, 4Ah, 4Ch, 29h, 18h, 0Fh, 18h,
                              28h
0649 00000008                
064D 484A4C29                
0651 180F1828                
0655 48080012        322             db       48h, 08h, 00h, 12h, 53h, 4Ah, 3Fh, 41h, 5Ch, 41h, 5Dh, 61h, 5Ch, 41h, 00h,
                              08h
0659 534A3F41                
065D 5C415D61                
0661 5C410008                
0665 10300000        323             db       10h, 30h, 00h, 00h, 00h, 00h, 00h, 00h, 00h, 00h, 00h, 2Dh, 2Bh, 55h, 24h,
                              7Fh
0669 00000000                
066D 0000002D                
0671 2B55247F                
0675 FF000000        324             db       0FFh, 00h, 00h, 00h, 10h, 10h,0F0h, 10h, 10h, 00h, 60h, 90h, 90h, 10h, 30h
                             , 00h
0679 1010F010                
067D 10006090                
0681 90103000                
0685 10F09090        325             db       10h,0F0h, 90h, 90h, 60h, 00h, 00h, 00h, 00h, 18h, 08h, 28h, 28h, 28h, 2Ch,
                              28h
0689 60000000                
A51 MACRO ASSEMBLER  12864                                                                03/29/2005 16:02:36 PAGE    11

068D 00180828                
0691 28282C28                
0695 28280818        326             db       28h, 28h, 08h, 18h, 00h, 80h,0A8h,0A8h,0ACh,0A8h,0F8h,0A8h,0ACh,0A8h,0A8h,
                              80h
0699 0080A8A8                
069D ACA8F8A8                
06A1 ACA8A880                
06A5 006050CC        327             db       00h, 60h, 50h,0CCh, 30h, 00h,0F8h, 48h, 48h, 48h,0FCh, 08h, 00h, 40h, 40h,
                              20h
06A9 3000F848                
06AD 4848FC08                
06B1 00404020                
06B5 FF000000        328             db       0FFh, 00h, 00h, 00h, 08h, 08h, 0Fh, 08h, 08h, 00h, 0Ch, 08h, 08h, 09h, 06h
                             , 00h
06B9 08080F08                
06BD 08000C08                
06C1 08090600                
06C5 080F0800        329             db       08h, 0Fh, 08h, 00h, 00h, 00h, 00h, 00h, 00h, 11h, 11h, 09h, 07h, 01h, 01h,
                              1Fh
06C9 00000000                
06CD 00111109                
06D1 0701011F                
06D5 1111111D        330             db       11h, 11h, 11h, 1Dh, 00h, 10h, 12h, 12h, 0Ah, 06h, 03h, 06h, 0Ah, 12h, 12h,
                              10h
06D9 00101212                
06DD 0A060306                
06E1 0A121210                
06E5 00120B0A        331             db       00h, 12h, 0Bh, 0Ah, 15h, 10h, 1Fh, 12h, 12h, 12h, 1Fh, 10h, 00h, 00h, 00h,
                              1Eh
06E9 15101F12                
06ED 12121F10                
06F1 0000001E                
06F5 FF000000        332             db       0FFh, 00h, 00h, 00h, 00h, 00h,0FEh, 20h, 20h, 20h, 00h,0FEh, 20h, 20h, 10h
                             , 08h
06F9 0000FE20                
06FD 202000FE                
0701 20201008                
0705 00000000        333             db       00h, 00h, 00h, 00h, 00h, 00h, 00h, 38h, 08h, 2Ah, 2Ch, 2Ah,0ACh, 68h, 28h,
                              0Eh
0709 00000038                
070D 082A2C2A                
0711 AC68280E                
0715 28180000        334             db       28h, 18h, 00h, 00h, 04h, 04h, 0Ch, 34h, 04h, 84h, 84h, 04h,0FEh, 04h, 00h,
                              40h
0719 04040C34                
071D 04848404                
0721 FE040040                
0725 4444FC44        335             db       44h, 44h,0FCh, 44h, 44h, 44h,0FCh, 44h, 46h, 44h, 00h, 10h, 1Ch, 10h,0F0h,
                              5Eh
0729 4444FC44                
072D 46440010                
0731 1C10F05E                
0735 FF808080        336             db       0FFh, 80h, 80h, 80h, 80h, 80h, 8Fh, 84h, 84h, 82h, 80h, 8Fh, 88h, 88h, 88h
                             , 8Fh
0739 80808F84                
073D 8482808F                
0741 8888888F                
0745 8080909E        337             db       80h, 80h, 90h, 9Eh, 8Eh, 80h, 80h, 81h, 81h, 81h, 89h, 89h, 8Fh, 81h, 81h,
                              81h
0749 8E808081                
074D 81818989                
0751 8F818181                
0755 81818082        338             db       81h, 81h, 80h, 82h, 86h, 82h, 82h, 81h, 81h, 88h, 88h, 88h, 87h, 80h, 80h,
                              88h
0759 86828281                
075D 81888888                
A51 MACRO ASSEMBLER  12864                                                                03/29/2005 16:02:36 PAGE    12

0761 87808088                
0765 88848380        339             db       88h, 84h, 83h, 80h, 80h, 80h, 8Fh, 80h, 80h, 80h, 80h, 88h, 84h, 8Bh, 88h,
                              84h
0769 80808F80                
076D 80808088                
0771 848B8884                
                     340     
                     341     
0775                 342     TAB4: 
                     343     ;--  调入了ME300B宣传文字图像：纵向取模下高位,数据排列:从左到右从上到下 
                     344     ;--  宽度x高度=64x64 
0775 010181F1        345             db       01h, 01h, 81h,0F1h, 81h, 81h, 01h,0E1h, 21h, 21h,0E1h, 01h, 01h, 01h, 01h,
                              21h
0779 818101E1                
077D 2121E101                
0781 01010121                
0785 21E12121        346             db       21h,0E1h, 21h, 21h,0E1h, 21h, 21h, 21h, 01h, 01h, 81h,0E1h,0A1h, 81h,0F1h,
                              81h
0789 E1212121                
078D 010181E1                
0791 A181F181                
0795 81E18181        347             db       81h,0E1h, 81h, 81h, 01h, 01h, 01h, 21h, 21h,0A1h, 61h, 21h,0E1h,0A1h, 11h,
                              01h
0799 01010121                
079D 21A16121                
07A1 E1A11101                
07A5 01018161        348             db       01h, 01h, 81h, 61h, 81h, 81h, 41h, 41h,0C1h, 61h, 41h, 41h, 01h, 01h, 01h,
                             0FFh
07A9 81814141                
07AD C1614141                
07B1 010101FF                
07B5 00000C7F        349             db       00h, 00h, 0Ch, 7Fh, 02h, 44h, 70h, 0Fh, 00h, 00h, 7Fh, 60h, 00h, 00h, 02h,
                              62h
07B9 0244700F                
07BD 00007F60                
07C1 00000262                
07C5 320F0202        350             db       32h, 0Fh, 02h, 02h, 7Fh, 02h, 02h, 02h, 00h, 00h, 30h, 58h, 4Ch, 43h, 2Eh,
                              32h
07C9 7F020202                
07CD 00003058                
07D1 4C432E32                
07D5 322E4240        351             db       32h, 2Eh, 42h, 40h, 00h, 00h, 20h, 24h, 15h, 07h, 45h, 7Dh, 04h, 16h, 3Eh,
                              24h
07D9 00002024                
07DD 1507457D                
07E1 04163E24                
07E5 00002D2B        352             db       00h, 00h, 2Dh, 2Bh, 29h, 60h, 42h, 3Fh, 02h, 7Eh, 43h, 62h, 00h, 00h, 00h,
                             0FFh
07E9 2960423F                
07ED 027E4362                
07F1 000000FF                
07F5 A2A2B2A2        353             db       0A2h,0A2h,0B2h,0A2h,0A2h,0E2h, 02h,0A2h,0A2h,0F2h, 92h, 02h,0F2h, 92h, 92h
                             , 92h
07F9 A2E202A2                
07FD A2F29202                
0801 F2929292                
0805 F2020202        354             db       0F2h, 02h, 02h, 02h, 02h, 02h, 02h, 02h, 02h, 02h, 02h, 02h, 02h, 02h, 02h
                             , 02h
0809 02020202                
080D 02020202                
0811 02020202                
0815 82E25242        355             db       82h,0E2h, 52h, 42h, 42h,0D2h, 62h, 42h, 42h, 42h, 02h, 22h, 22h,0E2h, 62h,
                              62h
0819 42D26242                
081D 42420222                
0821 22E26262                
A51 MACRO ASSEMBLER  12864                                                                03/29/2005 16:02:36 PAGE    13

0825 7262E222        356             db       72h, 62h,0E2h, 22h, 22h, 02h, 02h, 02h, 02h, 02h, 02h, 02h, 00h, 00h, 00h,
                             0FFh
0829 22020202                
082D 02020202                
0831 000000FF                
0835 0A3E0A3E        357             db       0Ah, 3Eh, 0Ah, 3Eh, 4Ah, 7Eh, 00h, 18h, 06h, 7Fh, 04h, 42h, 4Ah, 4Ah, 7Eh,
                              4Ah
0839 4A7E0018                
083D 067F0442                
0841 4A4A7E4A                
0845 4A420008        358             db       4Ah, 42h, 00h, 08h, 10h, 30h, 00h, 00h, 00h, 00h, 00h, 00h, 00h, 00h, 00h,
                              01h
0849 10300000                
084D 00000000                
0851 00000001                
0855 007F4020        359             db       00h, 7Fh, 40h, 20h, 18h, 07h, 41h, 41h, 3Fh, 00h, 00h, 50h, 50h, 5Fh, 35h,
                              15h
0859 18074141                
085D 3F000050                
0861 505F3515                
0865 15153F50        360             db       15h, 15h, 3Fh, 50h, 50h, 10h, 00h, 08h, 10h, 30h, 00h, 00h, 00h, 00h, 00h,
                             0FFh
0869 50100008                
086D 10300000                
0871 000000FF                
0875 50484448        361             db       50h, 48h, 44h, 48h, 50h, 20h, 40h, 40h, 00h, 00h, 00h, 00h, 00h, 00h, 10h,
                              90h
0879 50204040                
087D 00000000                
0881 00001090                
0885 9090FC00        362             db       90h, 90h,0FCh, 00h,0FCh, 90h, 90h, 90h, 10h, 00h, 00h, 00h, 00h,0F8h, 48h,
                              88h
0889 FC909090                
088D 10000000                
0891 00F84888                
0895 08FC0800        363             db       08h,0FCh, 08h, 00h, 00h, 00h, 60h,0FCh, 20h, 80h, 78h, 20h, 20h,0FCh, 20h,
                              30h
0899 000060FC                
089D 20807820                
08A1 20FC2030                
08A5 20004020        364             db       20h, 00h, 40h, 20h,0F8h, 44h, 20h,0D0h, 0Ch, 08h,0D0h, 20h, 40h, 00h, 00h,
                             0FFh
08A9 F84420D0                
08AD 0C08D020                
08B1 400000FF                
08B5 12121212        365             db       12h, 12h, 12h, 12h, 12h, 1Eh, 00h, 00h, 00h, 20h, 3Ch, 1Ch, 00h, 00h, 04h,
                              04h
08B9 121E0000                
08BD 00203C1C                
08C1 00000404                
08C5 04041F00        366             db       04h, 04h, 1Fh, 00h, 1Fh, 04h, 04h, 04h, 04h, 00h, 10h, 08h, 04h, 03h, 00h,
                              01h
08C9 1F040404                
08CD 04001008                
08D1 04030001                
08D5 001F1010        367             db       00h, 1Fh, 10h, 10h, 1Eh, 00h, 00h, 1Fh, 00h, 10h, 11h, 11h, 11h, 1Fh, 11h,
                              11h
08D9 1E00001F                
08DD 00101111                
08E1 111F1111                
08E5 11000000        368             db       11h, 00h, 00h, 00h, 1Fh, 10h, 08h, 07h, 00h, 00h, 1Fh, 00h, 00h, 00h, 00h,
                             0FFh
08E9 1F100807                
08ED 00001F00                
08F1 000000FF                
08F5 D05052D4        369             db       0D0h, 50h, 52h,0D4h, 10h, 10h, 00h, 64h, 5Ch,0F6h, 44h, 44h,0C2h,0A2h, 92h
A51 MACRO ASSEMBLER  12864                                                                03/29/2005 16:02:36 PAGE    14

                             , 8Ah
08F9 10100064                
08FD 5CF64444                
0901 C2A2928A                
0905 96600088        370             db       96h, 60h, 00h, 88h, 48h,0FEh, 48h, 20h, 18h, 06h,0C0h, 0Eh, 30h, 40h, 00h,
                              00h
0909 48FE4820                
090D 1806C00E                
0911 30400000                
0915 00FC2424        371             db       00h,0FCh, 24h, 24h, 26h, 24h, 24h, 24h,0FCh, 00h, 00h, 08h,0C8h, 3Eh, 08h,
                             0F8h
0919 26242424                
091D FC000008                
0921 C83E08F8                
0925 00F80808        372             db       00h,0F8h, 08h, 08h, 08h,0F8h, 00h, 00h, 38h,0FCh,0FCh, 38h, 00h, 00h, 00h,
                             0FFh
0929 08F80000                
092D 38FCFC38                
0931 000000FF                
0935 85828584        373             db       85h, 82h, 85h, 84h, 88h, 88h, 80h, 82h, 82h, 8Fh, 81h, 89h, 88h, 88h, 8Fh,
                              88h
0939 88888082                
093D 828F8189                
0941 88888F88                
0945 88888081        374             db       88h, 88h, 80h, 81h, 80h, 8Fh, 80h, 88h, 8Ch, 8Bh, 88h, 8Ah, 8Ch, 80h, 80h,
                              80h
0949 808F8088                
094D 8C8B888A                
0951 8C808080                
0955 808F8989        375             db       80h, 8Fh, 89h, 89h, 89h, 89h, 89h, 89h, 8Fh, 80h, 80h, 88h, 89h, 85h, 82h,
                              85h
0959 89898989                
095D 8F808088                
0961 89858285                
0965 80878484        376             db       80h, 87h, 84h, 84h, 84h, 87h, 80h, 80h, 80h, 86h, 86h, 80h, 80h, 80h, 80h,
                             0FFh
0969 84878080                
096D 80868680                
0971 808080FF                
                     377           
0975                 378     TAB5:
                     379     ;--  调入了伟纳logo图像：纵向取模下高位,数据排列:从左到右从上到下 
                     380     ;--  宽度x高度=64x64 
0975 FF010101        381             db       0FFh, 01h, 01h, 01h,0C1h, 01h, 01h, 01h,0C1h, 01h,0C1h, 41h, 41h, 41h, 41h
                             , 01h
0979 C1010101                
097D C101C141                
0981 41414101                
0985 81414141        382             db       81h, 41h, 41h, 41h, 81h, 01h, 81h, 41h, 41h, 41h, 81h, 01h, 81h, 41h, 41h,
                              41h
0989 81018141                
098D 41418101                
0991 81414141                
0995 8101C141        383             db       81h, 01h,0C1h, 41h, 41h, 41h, 81h, 01h, 01h, 01h, 01h,0C1h, 41h, 61h,0C1h,
                              41h
0999 41418101                
099D 010101C1                
09A1 4161C141                
09A5 6141C101        384             db       61h, 41h,0C1h, 01h, 01h, 01h, 01h, 01h,0E1h, 01h, 01h, 01h,0F1h, 01h, 01h,
                              01h
09A9 01010101                
09AD E1010101                
09B1 F1010101                
09B5 FF000000        385             db       0FFh, 00h, 00h, 00h, 3Fh, 03h, 3Ch, 03h, 3Fh, 00h, 3Fh, 22h, 22h, 22h, 20h
                             , 00h
09B9 3F033C03                
A51 MACRO ASSEMBLER  12864                                                                03/29/2005 16:02:36 PAGE    15

09BD 3F003F22                
09C1 22222000                
09C5 18202222        386             db       18h, 20h, 22h, 22h, 1Dh, 00h, 1Fh, 20h, 20h, 20h, 1Fh, 00h, 1Fh, 20h, 20h,
                              20h
09C9 1D001F20                
09CD 20201F00                
09D1 1F202020                
09D5 1F003F22        387             db       1Fh, 00h, 3Fh, 22h, 22h, 22h, 1Dh, 00h, 00h, 00h, 10h, 17h, 15h, 15h, 7Fh,
                              15h
09D9 22221D00                
09DD 00001017                
09E1 15157F15                
09E5 15151710        388             db       15h, 15h, 17h, 10h, 00h, 00h, 40h, 70h, 0Fh, 05h, 05h, 05h, 04h, 7Dh, 01h,
                              00h
09E9 00004070                
09ED 0F050505                
09F1 047D0100                
09F5 FF000000        389             db       0FFh, 00h, 00h, 00h, 00h, 00h, 00h, 00h, 00h, 00h, 00h, 00h, 00h, 00h, 00h
                             , 00h
09F9 00000000                
09FD 00000000                
0A01 00000000                
0A05 00000000        390             db       00h, 00h, 00h, 00h, 00h, 00h, 00h, 00h, 00h, 00h, 00h, 00h, 00h, 00h, 00h,
                              00h
0A09 00000000                
0A0D 00000000                
0A11 00000000                
0A15 00000000        391             db       00h, 00h, 00h, 00h, 00h, 00h, 00h, 00h, 00h, 00h, 00h, 00h, 00h, 00h, 00h,
                              00h
0A19 00000000                
0A1D 00000000                
0A21 00000000                
0A25 00000000        392             db       00h, 00h, 00h, 00h, 00h, 00h, 00h, 00h, 00h, 00h, 00h, 00h, 00h, 00h, 00h,
                              00h
0A29 00000000                
0A2D 00000000                
0A31 00000000                
0A35 FF000000        393             db       0FFh, 00h, 00h, 00h, 00h, 00h, 00h, 00h, 00h, 00h, 00h,0FEh,0FEh,0FEh,0FEh
                             ,0FEh
0A39 00000000                
0A3D 000000FE                
0A41 FEFEFEFE                
0A45 FEF00000        394             db       0FEh,0F0h, 00h, 00h, 00h, 0Eh,0FEh,0FEh,0FEh,0FEh,0FEh, 80h, 80h,0C0h,0C0h
                             ,0C0h
0A49 000EFEFE                
0A4D FEFEFE80                
0A51 80C0C0C0                
0A55 FEFEFEFE        395             db       0FEh,0FEh,0FEh,0FEh,0FEh,0FEh,0E0h,0E0h,0E0h,0C0h,0C0h, 00h, 00h, 00h, 00h
                             , 18h
0A59 FEFEE0E0                
0A5D E0C0C000                
0A61 00000018                
0A65 180CFCFE        396             db       18h, 0Ch,0FCh,0FEh, 82h,0ECh,0D4h, 54h, 54h,0FFh,0FFh, 54h, 54h, 54h, 54h,
                             0C0h
0A69 82ECD454                
0A6D 54FFFF54                
0A71 545454C0                
0A75 FF000000        397             db       0FFh, 00h, 00h, 00h, 00h, 00h, 00h, 00h, 00h, 00h, 00h, 80h,0CFh,0FFh,0FFh
                             ,0FFh
0A79 00000000                
0A7D 00000080                
0A81 CFFFFFFF                
0A85 FFFFFC1C        398             db       0FFh,0FFh,0FCh, 1Ch, 0Eh, 0Eh, 07h, 7Fh,0FFh,0FFh,0FFh,0FFh,0C1h, 00h, 00h
                             , 00h
0A89 0E0E077F                
0A8D FFFFFFFF                
A51 MACRO ASSEMBLER  12864                                                                03/29/2005 16:02:36 PAGE    16

0A91 C1000000                
0A95 0007FFFF        399             db       00h, 07h,0FFh,0FFh,0FFh, 80h,0E0h,0F0h, 38h, 3Fh, 1Fh, 03h, 00h, 00h, 00h,
                              00h
0A99 FF80E0F0                
0A9D 383F1F03                
0AA1 00000000                
0AA5 00001F0F        400             db       00h, 00h, 1Fh, 0Fh, 00h, 00h, 00h, 00h, 00h, 1Fh, 1Fh, 04h, 02h, 02h, 03h,
                              01h
0AA9 00000000                
0AAD 001F1F04                
0AB1 02020301                
0AB5 FF000000        401             db       0FFh, 00h, 00h, 00h,0C0h,0E0h,0F0h, 3Ch, 1Ch, 0Eh, 03h, 03h, 01h, 07h, 7Fh
                             ,0FFh
0AB9 C0E0F03C                
0ABD 1C0E0303                
0AC1 01077FFF                
0AC5 FFFFFFFF        402             db       0FFh,0FFh,0FFh,0FFh, 00h, 00h, 00h, 00h,0FFh,0FFh,0FFh,0FFh,0FFh,0F0h, 70h
                             , 38h
0AC9 00000000                
0ACD FFFFFFFF                
0AD1 FFF07038                
0AD5 3C1C0EFF        403             db       3Ch, 1Ch, 0Eh,0FFh, 07h, 03h, 00h, 00h, 00h, 00h, 00h, 00h, 00h, 00h, 00h,
                              00h
0AD9 07030000                
0ADD 00000000                
0AE1 00000000                
0AE5 02020202        404             db       02h, 02h, 02h, 02h, 02h, 02h, 02h, 02h, 02h, 02h, 02h, 02h, 02h, 02h, 02h,
                              02h
0AE9 02020202                
0AED 02020202                
0AF1 02020202                
0AF5 FF000006        405             db       0FFh, 00h, 00h, 06h, 0Fh, 0Fh, 1Ch, 18h, 18h, 18h, 18h, 18h, 18h, 18h, 18h
                             , 3Fh
0AF9 0F0F1C18                
0AFD 18181818                
0B01 1818183F                
0B05 FFFFFFFF        406             db       0FFh,0FFh,0FFh,0FFh,0FEh,0E6h, 07h, 07h, 07h, 7Fh,0FFh,0FFh,0FFh,0FFh,0F0h
                             , 00h
0B09 FEE60707                
0B0D 077FFFFF                
0B11 FFFFF000                
0B15 00000000        407             db       00h, 00h, 00h, 00h, 00h, 00h, 00h, 00h, 00h, 00h, 00h, 03h, 1Ch, 60h, 1Ch,
                              03h
0B19 00000000                
0B1D 00000003                
0B21 1C601C03                
0B25 031C601C        408             db       03h, 1Ch, 60h, 1Ch, 03h, 1Ch, 60h, 1Ch, 03h, 03h, 1Ch, 60h, 1Ch, 03h, 1Ch,
                              60h
0B29 031C601C                
0B2D 03031C60                
0B31 1C031C60                
0B35 FF808080        409             db       0FFh, 80h, 80h, 80h, 80h, 80h, 80h, 80h, 80h, 80h, 80h, 80h, 80h, 80h, 80h
                             , 80h
0B39 80808080                
0B3D 80808080                
0B41 80808080                
0B45 81818181        410             db       81h, 81h, 81h, 81h, 81h, 81h, 80h, 80h, 80h, 80h, 81h, 81h, 81h, 81h, 81h,
                              80h
0B49 81818080                
0B4D 80808181                
0B51 81818180                
0B55 80808080        411             db       80h, 80h, 80h, 80h, 80h, 80h, 80h, 80h, 80h, 80h, 80h, 80h, 80h, 80h, 80h,
                              80h
0B59 80808080                
0B5D 80808080                
0B61 80808080                
A51 MACRO ASSEMBLER  12864                                                                03/29/2005 16:02:36 PAGE    17

0B65 80808080        412             db       80h, 80h, 80h, 80h, 80h, 80h, 80h, 80h, 80h, 80h, 80h, 80h, 80h, 80h, 80h,
                              80h
0B69 80808080                
0B6D 80808080                
0B71 80808080                
                     413     
                     414     
0B75                 415     TAB6:
                     416     ;--  调入了伟纳logo图像：纵向取模下高位,数据排列:从左到右从上到下 
                     417     ;--  宽度x高度=64x64  
0B75 010181F1        418             db       01h, 01h, 81h,0F1h, 81h, 81h, 01h,0E1h, 21h, 21h,0E1h, 01h, 01h, 01h, 01h,
                              21h
0B79 818101E1                
0B7D 2121E101                
0B81 01010121                
0B85 21E12121        419             db       21h,0E1h, 21h, 21h,0E1h, 21h, 21h, 21h, 01h, 01h, 81h,0E1h,0A1h, 81h,0F1h,
                              81h
0B89 E1212121                
0B8D 010181E1                
0B91 A181F181                
0B95 81E18181        420             db       81h,0E1h, 81h, 81h, 01h, 01h, 01h, 21h, 21h,0A1h, 61h, 21h,0E1h,0A1h, 11h,
                              01h
0B99 01010121                
0B9D 21A16121                
0BA1 E1A11101                
0BA5 01018161        421             db       01h, 01h, 81h, 61h, 81h, 81h, 41h, 41h,0C1h, 61h, 41h, 41h, 01h, 01h, 01h,
                             0FFh
0BA9 81814141                
0BAD C1614141                
0BB1 010101FF                
0BB5 00000C7F        422             db       00h, 00h, 0Ch, 7Fh, 02h, 44h, 70h, 0Fh, 00h, 00h, 7Fh, 60h, 00h, 00h, 02h,
                              62h
0BB9 0244700F                
0BBD 00007F60                
0BC1 00000262                
0BC5 320F0202        423             db       32h, 0Fh, 02h, 02h, 7Fh, 02h, 02h, 02h, 00h, 00h, 30h, 58h, 4Ch, 43h, 2Eh,
                              32h
0BC9 7F020202                
0BCD 00003058                
0BD1 4C432E32                
0BD5 322E4240        424             db       32h, 2Eh, 42h, 40h, 00h, 00h, 20h, 24h, 15h, 07h, 45h, 7Dh, 04h, 16h, 3Eh,
                              24h
0BD9 00002024                
0BDD 1507457D                
0BE1 04163E24                
0BE5 00002D2B        425             db       00h, 00h, 2Dh, 2Bh, 29h, 60h, 42h, 3Fh, 02h, 7Eh, 43h, 62h, 00h, 00h, 00h,
                             0FFh
0BE9 2960423F                
0BED 027E4362                
0BF1 000000FF                
0BF5 00000000        426             db       00h, 00h, 00h, 00h, 00h, 00h, 00h, 00h, 00h, 00h, 00h, 00h, 00h, 00h, 00h,
                              00h
0BF9 00000000                
0BFD 00000000                
0C01 00000000                
0C05 00000000        427             db       00h, 00h, 00h, 00h, 00h, 00h, 00h, 00h, 00h, 00h, 00h, 00h, 00h, 00h, 00h,
                              00h
0C09 00000000                
0C0D 00000000                
0C11 00000000                
0C15 00000000        428             db       00h, 00h, 00h, 00h, 00h, 00h, 00h, 00h, 00h, 00h, 00h, 00h, 00h, 00h, 00h,
                              00h
0C19 00000000                
0C1D 00000000                
0C21 00000000                
0C25 00000000        429             db       00h, 00h, 00h, 00h, 00h, 00h, 00h, 00h, 00h, 00h, 00h, 00h, 00h, 00h, 00h,
A51 MACRO ASSEMBLER  12864                                                                03/29/2005 16:02:36 PAGE    18

                             0FFh
0C29 00000000                
0C2D 00000000                
0C31 000000FF                
0C35 C0000000        430             db       0C0h, 00h, 00h, 00h, 30h,0B0h,0E8h,0A4h,0B6h, 10h, 08h,0F8h, 18h, 88h,0FEh
                             ,0FEh
0C39 30B0E8A4                
0C3D B61008F8                
0C41 1888FEFE                
0C45 8808F8F8        431             db       88h, 08h,0F8h,0F8h, 00h, 00h, 00h, 00h, 7Ch,0FCh,0ACh,0A4h,0A4h,0FCh,0FFh,
                             0A4h
0C49 00000000                
0C4D 7CFCACA4                
0C51 A4FCFFA4                
0C55 A4A4A4FC        432             db       0A4h,0A4h,0A4h,0FCh,0FCh, 00h, 00h, 00h, 00h, 00h, 00h, 60h, 60h, 60h, 64h
                             , 26h
0C59 FC000000                
0C5D 00000060                
0C61 60606426                
0C65 2622222A        433             db       26h, 22h, 22h, 2Ah,0FAh,0FAh, 2Eh, 26h, 66h, 60h, 60h, 60h, 60h, 00h, 00h,
                             0FFh
0C69 FAFA2E26                
0C6D 66606060                
0C71 600000FF                
0C75 0000040C        434             db       00h, 00h, 04h, 0Ch, 04h, 05h, 05h, 02h, 0Ah, 0Ah, 0Eh, 07h, 03h, 01h, 00h,
                              00h
0C79 04050502                
0C7D 0A0A0E07                
0C81 03010000                
0C85 01010F0F        435             db       01h, 01h, 0Fh, 0Fh, 00h, 00h, 00h, 00h, 00h, 01h, 01h, 01h, 01h, 00h, 07h,
                              0Eh
0C89 00000000                
0C8D 00010101                
0C91 0100070E                
0C95 0C0C1C1D        436             db       0Ch, 0Ch, 1Ch, 1Dh, 1Ch, 1Ch, 1Ch, 0Ch, 06h, 00h, 00h, 00h, 00h, 00h, 00h,
                              08h
0C99 1C1C1C0C                
0C9D 06000000                
0CA1 00000008                
0CA5 0818181C        437             db       08h, 18h, 18h, 1Ch, 0Fh, 07h, 00h, 00h, 00h, 00h, 00h, 00h, 00h, 00h, 00h,
                             0FFh
0CA9 0F070000                
0CAD 00000000                
0CB1 000000FF                
0CB5 02020202        438             db       02h, 02h, 02h, 02h, 02h, 02h, 02h, 02h, 02h, 02h, 02h, 02h, 02h, 02h, 02h,
                              42h
0CB9 02020202                
0CBD 02020202                
0CC1 02020242                
0CC5 0202C202        439             db       02h, 02h,0C2h, 02h, 02h,0C2h, 02h, 02h, 02h, 02h, 02h, 02h, 02h, 02h, 02h,
                              02h
0CC9 02C20202                
0CCD 02020202                
0CD1 02020202                
0CD5 02020202        440             db       02h, 02h, 02h, 02h, 02h, 02h, 02h, 02h, 02h, 02h, 02h, 02h, 02h, 02h, 02h,
                              02h
0CD9 02020202                
0CDD 02020202                
0CE1 02020202                
0CE5 02020202        441             db       02h, 02h, 02h, 02h, 02h, 02h, 02h, 02h, 02h, 02h, 02h, 02h, 00h, 00h, 00h,
                             0FFh
0CE9 02020202                
0CED 02020202                
0CF1 000000FF                
0CF5 1C030040        442             db       1Ch, 03h, 00h, 40h, 00h, 03h, 1Ch, 60h, 1Ch, 03h, 1Ch, 60h, 1Ch, 03h, 00h,
                              7Fh
A51 MACRO ASSEMBLER  12864                                                                03/29/2005 16:02:36 PAGE    19

0CF9 00031C60                
0CFD 1C031C60                
0D01 1C03007F                
0D05 00007F00        443             db       00h, 00h, 7Fh, 00h, 00h, 7Fh, 00h, 00h, 32h, 49h, 49h, 29h, 7Eh, 00h, 00h,
                              7Fh
0D09 007F0000                
0D0D 32494929                
0D11 7E00007F                
0D15 02014000        444             db       02h, 01h, 40h, 00h, 00h, 3Eh, 41h, 41h, 22h, 00h, 00h, 3Eh, 41h, 41h, 41h,
                              3Eh
0D19 003E4141                
0D1D 2200003E                
0D21 4141413E                
0D25 00007F02        445             db       00h, 00h, 7Fh, 02h, 01h, 01h, 7Eh, 02h, 01h, 01h, 7Eh, 00h, 00h, 00h, 00h,
                             0FFh
0D29 01017E02                
0D2D 01017E00                
0D31 000000FF                
0D35 80808080        446             db       80h, 80h, 80h, 80h, 80h, 80h, 80h, 80h, 80h, 80h, 80h, 80h, 80h, 80h, 80h,
                              80h
0D39 80808080                
0D3D 80808080                
0D41 80808080                
0D45 80808080        447             db       80h, 80h, 80h, 80h, 80h, 80h, 80h, 80h, 80h, 80h, 80h, 80h, 80h, 80h, 80h,
                              80h
0D49 80808080                
0D4D 80808080                
0D51 80808080                
0D55 80808080        448             db       80h, 80h, 80h, 80h, 80h, 80h, 80h, 80h, 80h, 80h, 80h, 80h, 80h, 80h, 80h,
                              80h
0D59 80808080                
0D5D 80808080                
0D61 80808080                
0D65 80808080        449             db       80h, 80h, 80h, 80h, 80h, 80h, 80h, 80h, 80h, 80h, 80h, 80h, 80h, 80h, 80h,
                             0FFh
0D69 80808080                
0D6D 80808080                
0D71 808080FF                
                     450     
                     451       END
                                     
                             
A51 MACRO ASSEMBLER  12864                                                                03/29/2005 16:02:36 PAGE    20

SYMBOL TABLE LISTING
------ ----- -------


N A M E             T Y P E  V A L U E   ATTRIBUTES

ABC. . . . . . . .  C ADDR   00A0H   A   
ACC. . . . . . . .  D ADDR   00E0H   A   
B. . . . . . . . .  D ADDR   00F0H   A   
BA . . . . . . . .  C ADDR   00BFH   A   
CA . . . . . . . .  C ADDR   00E4H   A   
COM. . . . . . . .  N NUMB   0020H   A   
CS1. . . . . . . .  B ADDR   00A0H.3 A   
CS2. . . . . . . .  B ADDR   00A0H.4 A   
D1 . . . . . . . .  C ADDR   016AH   A   
D2 . . . . . . . .  C ADDR   016CH   A   
D3 . . . . . . . .  C ADDR   016EH   A   
DAT. . . . . . . .  N NUMB   0021H   A   
DELAY. . . . . . .  C ADDR   0168H   A   
E. . . . . . . . .  B ADDR   00A0H.2 A   
IE . . . . . . . .  D ADDR   00A8H   A   
IP . . . . . . . .  D ADDR   00B8H   A   
L0100. . . . . . .  C ADDR   0005H   A   
LEFT . . . . . . .  C ADDR   007FH   A   
P0 . . . . . . . .  D ADDR   0080H   A   
P2 . . . . . . . .  D ADDR   00A0H   A   
RIGHT. . . . . . .  C ADDR   009EH   A   
RS . . . . . . . .  B ADDR   00A0H.0 A   
RST. . . . . . . .  B ADDR   00A0H.5 A   
RW . . . . . . . .  B ADDR   00A0H.1 A   
S027B. . . . . . .  C ADDR   008EH   A   
S027D. . . . . . .  C ADDR   00ADH   A   
S02A9. . . . . . .  C ADDR   0110H   A   
S02B1. . . . . . .  C ADDR   0118H   A   
S02B9. . . . . . .  C ADDR   0128H   A   
S02C1. . . . . . .  C ADDR   0120H   A   
S02C9. . . . . . .  C ADDR   0130H   A   
S02C9A . . . . . .  C ADDR   0134H   A   
S02E0. . . . . . .  C ADDR   014BH   A   
S02E0A . . . . . .  C ADDR   014FH   A   
SP . . . . . . . .  D ADDR   0081H   A   
STR. . . . . . . .  C ADDR   0003H   A   
TAB1 . . . . . . .  C ADDR   0175H   A   
TAB2 . . . . . . .  C ADDR   0375H   A   
TAB3 . . . . . . .  C ADDR   0575H   A   
TAB4 . . . . . . .  C ADDR   0775H   A   
TAB5 . . . . . . .  C ADDR   0975H   A   
TAB6 . . . . . . .  C ADDR   0B75H   A   
TCON . . . . . . .  D ADDR   0088H   A   
W027B. . . . . . .  C ADDR   00D2H   A   
X027B. . . . . . .  C ADDR   00F7H   A   
XIHX . . . . . . .  C ADDR   00BDH   A   
XISX . . . . . . .  C ADDR   00E2H   A   
_AB. . . . . . . .  C ADDR   0081H   A   


REGISTER BANK(S) USED: 0 


ASSEMBLY COMPLETE.  0 WARNING(S), 0 ERROR(S)
