A51 MACRO ASSEMBLER  12864_                                                               03/29/2005 13:34:16 PAGE     1


MACRO ASSEMBLER A51 V7.10
OBJECT MODULE PLACED IN 12864_.OBJ
ASSEMBLER INVOKED BY: C:\Keil\C51\BIN\A51.EXE 12864_.asm SET(SMALL) DEBUG EP

LOC  OBJ            LINE     SOURCE

                       1     ;控制器：KS0107
                       2     ;LCD型号：TS12864A-2
                       3     ;模块接口：1-VSS，2-VDD，3-V0，4-RS，5-R/W，6-E，7-14---DB0-DB7，15-CS1，16-CS2，17-/RST，1
                             8-VEE
                       4     ;取模方式：纵向字节倒序
                       5     ;CS1和CS2为高电平有效
                       6     ;********************************************************
  00A0                 7               RS       EQU   P2.0
  00A1                 8               RW       EQU   P2.1
  00A2                 9               E        EQU   P2.2
  00A3                10               CS1      EQU   P2.3
  00A4                11               CS2      EQU   P2.4
  00A5                12               RST      EQU   P2.5   
  0020                13               COM      EQU   20H    ;指令数据寄存器
  0021                14               DAT      EQU   21H    ;显示数据寄存器
                      15             
                      16     ;******************************************************** 以上是硬件定义
0000                  17             ORG     0000H  
0000 0106             18             AJMP    STR       
                      19     ;*********************************主程序入口地址
0003                  20             ORG     0003H             
0003 020F05           21             LJMP    L0006
                      22     ;*********************************中断程序入口地址
0006 30B402           23     STR:    JNB     P3.4,ST7920A  
0009 010E             24             AJMP    L0100
000B                  25     ST7920A:
000B 020D7E           26             LJMP ST7920      
000E C2A5             27     L0100:  CLR     RST
0010 00               28             NOP
0011 00               29             NOP
0012 D2A5             30             SETB    RST
                      31             
                      32     ;********************************************************以上是软件复位
0014 758160           33             MOV     SP,#60H
0017 75A881           34             MOV     IE,#81H            ;中断允许
001A 75B801           35             MOV     IP,#01H            ;优先中断
001D 758800           36             MOV     TCON,#00H          ;电平中断
0020 75203F           37             MOV     COM,#3FH         ;显示开
0023 120119           38             LCALL   S02A9            ;左半屏写指令子程序
0026 120129           39             LCALL   S02C1            ;右半屏写指令子程序
                      40     ;----------------------------------------------------------------------
0029 7520C0           41             MOV     COM,#0C0H        ;第一行        
002C 120119           42             LCALL   S02A9            ;左半屏写指令子程序
002F 120129           43             LCALL   S02C1            ;右半屏写指令子程序
                      44     ;----------------------------------------------------------------------
0032 7520B8           45             MOV     COM,#0B8H       ;第一页        
0035 120119           46             LCALL   S02A9           ;左半屏写指令子程序
0038 120129           47             LCALL   S02C1           ;右半屏写指令子程序
                      48     ;----------------------------------------------------------------------
003B 752040           49             MOV     COM,#40H        ;第一列
003E 120119           50             LCALL   S02A9           ;左半屏写指令子程序
0041 120129           51             LCALL   S02C1           ;右半屏写指令子程序
                      52     ;********************************************************以上是软件初始化
0044 75F0AA           53             MOV     B,#0AAH
0047 1200C6           54             LCALL   XIHX                                    ;显示横线1
004A 120171           55             LCALL   S0240 
                      56           ; MOV     B,#55H
                      57            ; LCALL   XIHX    
A51 MACRO ASSEMBLER  12864_                                                               03/29/2005 13:34:16 PAGE     2

                      58            ; LCALL   S0240                                   ;显示横线2
004D 75F0FF           59             MOV     B,#0FFH
0050 752900           60             MOV     29H,#00H       
0053 1200EB           61             LCALL   XISX    
0056 120171           62             LCALL   S0240                                   ;显示竖线1
                      63            ; MOV     B,#00H
                      64            ; MOV     29H,#0FFH
                      65           ; LCALL   XISX    
                      66            ; LCALL   S0240                                   ;显示竖线2
                      67     
0059 90017E           68             MOV     DPTR,#TAB1
005C 120088           69             LCALL   LEFT
005F 90037E           70             MOV     DPTR,#TAB2
0062 1200A7           71             LCALL   RIGHT       
0065 120171           72             LCALL   S0240                                   ;显示第一幅图片
0068 90057E           73             MOV     DPTR,#TAB3
006B 120088           74             LCALL   LEFT
006E 90077E           75             MOV     DPTR,#TAB4
0071 1200A7           76             LCALL   RIGHT       
0074 120171           77             LCALL   S0240                                   ;显示第二幅图片
                      78     
0077 90097E           79             MOV     DPTR,#TAB5
007A 120088           80             LCALL   LEFT
007D 900B7E           81             MOV     DPTR,#TAB6
0080 1200A7           82             LCALL   RIGHT       
0083 120171           83             LCALL   S0240                                   ;显示第三幅图片
                      84     
0086 010E             85             AJMP    L0100
                      86     ;=======================================================以上是主程序
0088 79B8             87     LEFT:   MOV     R1,#0B8H
008A 8920             88     _AB:     MOV     COM,R1          ;第一页        
008C 120119           89             LCALL   S02A9           ;左半屏写指令子程序     
008F 752040           90             MOV     COM,#40H        ;第一列
0092 120119           91             LCALL   S02A9           ;左半屏写指令子程序      
0095 7840             92             MOV     R0, #64 
0097 7400             93     S027B:  MOV     A,#00H
0099 93               94             MOVC    A,@A+DPTR               
009A F521             95             MOV     DAT,A        
009C 120121           96             LCALL   S02B1           ;左半屏写数据子程序         
009F A3               97             INC     DPTR    
00A0 D8F5             98             DJNZ    R0,S027B
00A2 09               99             INC     R1        
00A3 B9C0E4          100             CJNE    R1, #0C0H,_AB      
00A6 22              101             RET
                     102     ;======================================================以上是左半屏写数据子程序
00A7 79B8            103     RIGHT:  MOV     R1,#0B8H
00A9 8920            104     ABC:    MOV     COM,R1          ;第一页        
00AB 120129          105             LCALL   S02C1           ;右半屏写指令子程序     
00AE 752040          106             MOV     COM,#40H        ;第一列
00B1 120129          107             LCALL   S02C1           ;右半屏写指令子程序      
00B4 7840            108             MOV     R0, #64 
00B6 7400            109     S027D:  MOV     A,#00H
00B8 93              110             MOVC    A,@A+DPTR               
00B9 F521            111             MOV     DAT,A        
00BB 120131          112             LCALL   S02B9           ;右半屏写数据子程序         
00BE A3              113             INC     DPTR    
00BF D8F5            114             DJNZ    R0,S027D
00C1 09              115             INC     R1        
00C2 B9C0E4          116             CJNE    R1, #0C0H,ABC       
00C5 22              117             RET
                     118     
                     119     ;*******************************************************以上是右半屏写数据子程序
                     120     
00C6 79B8            121     XIHX:   MOV     R1,#0B8H       
00C8 8920            122     BA:     MOV     COM,R1          ;第一页        
00CA 120119          123             LCALL   S02A9           ;左半屏写指令子程序
A51 MACRO ASSEMBLER  12864_                                                               03/29/2005 13:34:16 PAGE     3

00CD 120129          124             LCALL   S02C1           ;右半屏写指令子程序
00D0 752040          125             MOV     COM,#40H        ;第一列
00D3 120119          126             LCALL   S02A9           ;左半屏写指令子程序 
00D6 120129          127             LCALL   S02C1           ;右半屏写指令子程序
00D9 7840            128             MOV     R0, #64 
00DB 85F021          129     W027B:  MOV     DAT,B        
00DE 120121          130             LCALL   S02B1           ;左半屏写数据子程序         
00E1 120131          131             LCALL   S02B9           ;右半屏写数据子程序    
00E4 D8F5            132             DJNZ    R0,W027B
00E6 09              133             INC     R1        
00E7 B9C0DE          134             CJNE    R1, #0C0H,BA      
00EA 22              135             RET 
                     136     ;--------------------------------------------------------- 
00EB 79B8            137     XISX:   MOV     R1,#0B8H       
00ED 8920            138     CA:     MOV     COM,R1          ;第一页        
00EF 120119          139             LCALL   S02A9           ;左半屏写指令子程序
00F2 120129          140             LCALL   S02C1           ;右半屏写指令子程序
00F5 752040          141             MOV     COM,#40H        ;第一列
00F8 120119          142             LCALL   S02A9           ;左半屏写指令子程序 
00FB 120129          143             LCALL   S02C1           ;右半屏写指令子程序
00FE 7820            144             MOV     R0, #32 
0100 85F021          145     X027B:  MOV     DAT,B        
0103 120121          146             LCALL   S02B1           ;左半屏写数据子程序         
0106 120131          147             LCALL   S02B9           ;右半屏写数据子程序   
0109 852921          148             MOV     DAT,29H
010C 120121          149             LCALL   S02B1           ;左半屏写数据子程序         
010F 120131          150             LCALL   S02B9           ;右半屏写数据子程序
0112 D8EC            151             DJNZ    R0,X027B
0114 09              152             INC     R1        
0115 B9C0D5          153             CJNE    R1, #0C0H,CA      
0118 22              154             RET  
                     155     ;****************************************************以上是显示线条程序
0119 D2A3            156     S02A9:  SETB    CS1
011B 120139          157             LCALL   S02C9
011E C2A3            158             CLR     CS1         ;左半屏写指令子程序
0120 22              159             RET   
                     160       
0121 D2A3            161     S02B1:  SETB    CS1         ;左半屏写数据子程序        
0123 120154          162             LCALL   S02E0  
0126 C2A3            163             CLR     CS1     
0128 22              164             RET  
                     165     
0129 D2A4            166     S02C1:  SETB    CS2         ;右半屏写指令子程序        
012B 120139          167             LCALL   S02C9  
012E C2A4            168             CLR     CS2      
0130 22              169             RET    
                     170     
0131 D2A4            171     S02B9:  SETB    CS2         ;右半屏写数据子程序       
0133 120154          172             LCALL   S02E0    
0136 C2A4            173             CLR     CS2
0138 22              174             RET     
                     175     ;**************************************************** 
                     176     
0139 C2A0            177     S02C9:  CLR     RS         
013B D2A1            178             SETB    RW        
013D 7580FF          179     S02C9A: MOV     P0,#0FFH
0140 D2A2            180             SETB    E
0142 E580            181             MOV     A, P0
0144 C2A2            182             CLR     E
0146 20E7F4          183             JB      ACC.7,S02C9A
0149 C2A1            184             CLR     RW
014B 852080          185             MOV     P0,COM       
014E D2A2            186             SETB    E
0150 00              187             NOP
0151 C2A2            188             CLR     E
0153 22              189             RET     
A51 MACRO ASSEMBLER  12864_                                                               03/29/2005 13:34:16 PAGE     4

                     190     ;*************************************************以上是写指令子程序
0154 C2A0            191     S02E0:  CLR     RS         
0156 D2A1            192             SETB    RW        
0158 7580FF          193     S02E0A: MOV     P0,#0FFH
015B D2A2            194             SETB    E
015D E580            195             MOV     A, P0
015F C2A2            196             CLR     E
0161 20E7F4          197             JB      ACC.7,S02E0A
0164 D2A0            198             SETB    RS
0166 C2A1            199             CLR     RW
0168 852180          200             MOV     P0,DAT      
016B D2A2            201             SETB    E
016D 00              202             NOP
016E C2A2            203             CLR     E
0170 22              204             RET      
                     205               
                     206     ;************************************************以上是写数据子程序
                     207     
0171 7D0B            208     S0240:  MOV     R5,#0BH            ;延时
0173 7FFF            209     L0242:  MOV     R7,#0FFH
0175 7EFF            210     L0244:  MOV     R6,#0FFH
0177 DEFE            211     L0246:  DJNZ    R6,$
0179 DFFA            212             DJNZ    R7,L0244
017B DDF6            213             DJNZ    R5,L0242
017D 22              214             RET     
                     215      ;****************************************************************  
017E                 216     TAB1:
                     217     ;--  调入了一幅图像：纵向取模下高位,数据排列:从左到右从上到下 
                     218     ;--  宽度x高度=64x64 
017E 00000000        219     db   00h, 00h, 00h, 00h, 00h, 00h, 00h, 00h, 00h, 00h, 00h, 00h, 00h, 80h, 20h, 0Ah
0182 00000000                
0186 00000000                
018A 0080200A                
018E 4A3C40BE        220             db       4Ah, 3Ch, 40h,0BEh, 00h, 54h, 00h, 24h, 42h,0A8h, 00h,0EEh, 00h, 42h, 06h,
                              48h
0192 00540024                
0196 42A800EE                
019A 00420648                
019E 12441244        221             db       12h, 44h, 12h, 44h,0A8h, 02h, 20h, 04h, 22h,0C0h, 82h,0E4h,0C0h,0E0h,0C0h,
                             0C0h
01A2 A8022004                
01A6 22C082E4                
01AA C0E0C0C0                
01AE A0C0C080        222             db      0A0h,0C0h,0C0h, 80h,0A0h, 00h, 00h, 20h, 00h, 00h, 04h, 48h, 12h, 2Ch, 1Ah,
                              1Ch
01B2 A0000020                
01B6 00000448                
01BA 122C1A1C                
01BE 00000000        223             db       00h, 00h, 00h, 00h, 00h, 00h, 00h, 00h, 00h, 00h, 00h, 00h, 00h, 00h, 01h,
                              00h
01C2 00000000                
01C6 00000000                
01CA 00000100                
01CE 01000005        224             db       01h, 00h, 00h, 05h, 00h, 01h, 00h, 00h, 00h, 02h, 00h, 01h, 05h, 00h, 01h,
                              00h
01D2 00010000                
01D6 00020001                
01DA 05000100                
01DE 01040002        225             db       01h, 04h, 00h, 02h, 28h, 01h,0A8h, 10h,0FEh,0FDh,0DFh, 1Fh, 3Fh, 7Fh, 0Fh,
                              8Bh
01E2 2801A810                
01E6 FEFDDF1F                
01EA 3F7F0F8B                
01EE 03232303        226             db       03h, 23h, 23h, 03h, 00h, 00h, 00h, 00h, 00h, 00h, 00h, 00h, 00h, 00h, 20h,
                             0FDh
01F2 00000000                
A51 MACRO ASSEMBLER  12864_                                                               03/29/2005 13:34:16 PAGE     5

01F6 00000000                
01FA 000020FD                
01FE 00000000        227             db       00h, 00h, 00h, 00h, 00h, 00h, 00h, 00h, 00h, 00h, 00h, 00h, 00h, 00h, 00h,
                              00h
0202 00000000                
0206 00000000                
020A 00000000                
020E 00000000        228             db       00h, 00h, 00h, 00h, 00h, 00h, 00h, 00h, 80h, 00h, 20h,0A0h,0E8h, 68h,0F4h,
                             0F0h
0212 00000000                
0216 800020A0                
021A E868F4F0                
021E F8F078E0        229             db      0F8h,0F0h, 78h,0E0h,0D0h, 14h,0A0h, 20h, 43h, 11h, 20h, 71h, 74h, 76h, 7Ch,
                              9Ch
0222 D014A020                
0226 43112071                
022A 74767C9C                
022E 42D42180        230             db       42h,0D4h, 21h, 80h, 00h, 00h, 00h, 00h, 00h, 00h, 00h, 00h, 00h, 00h,0FFh,
                             0D2h
0232 00000000                
0236 00000000                
023A 0000FFD2                
023E 00000000        231             db       00h, 00h, 00h, 00h, 00h, 00h, 00h, 00h, 00h, 00h, 00h, 00h, 00h, 00h, 00h,
                              00h
0242 00000000                
0246 00000000                
024A 00000000                
024E 008000C0        232             db       00h, 80h, 00h,0C0h, 80h, 40h,0B8h,0F8h,0F8h,0BCh, 3Eh, 3Fh, 3Eh,0FFh,0FFh,
                             0FFh
0252 8040B8F8                
0256 F8BC3E3F                
025A 3EFFFFFF                
025E FFFFFFFE        233             db      0FFh,0FFh,0FFh,0FEh,0FDh,0FCh,0F9h,0F9h,0FDh,0F9h,0FAh,0C1h, 0Ah, 9Ah,0F9h,
                             0F3h
0262 FDFCF9F9                
0266 FDF9FAC1                
026A 0A9AF9F3                
026E E4E0E2FC        234             db      0E4h,0E0h,0E2h,0FCh,0FFh,0FFh, 7Fh,0DFh,0FCh,0C0h, 00h, 00h, 01h, 48h, 33h,
                             0BFh
0272 FFFF7FDF                
0276 FCC00000                
027A 014833BF                
027E 00000000        235             db       00h, 00h, 00h, 00h, 00h, 00h, 00h, 00h, 00h, 00h, 00h, 00h, 00h, 40h, 08h,
                              00h
0282 00000000                
0286 00000000                
028A 00400800                
028E 02010301        236             db       02h, 01h, 03h, 01h, 01h, 04h,0A1h, 0Ah, 24h, 0Bh, 1Ah, 41h, 9Eh,0DFh, 97h,
                             0A9h
0292 0104A10A                
0296 240B1A41                
029A 9EDF97A9                
029E 5E53F5D7        237             db       5Eh, 53h,0F5h,0D7h, 7Fh,0FFh,0FFh,0FFh,0FFh,0FFh,0FFh,0FCh,0FEh,0FFh,0FFh,
                             0FFh
02A2 7FFFFFFF                
02A6 FFFFFFFC                
02AA FEFFFFFF                
02AE FFFF3FBF        238             db      0FFh,0FFh, 3Fh,0BFh,0FFh, 0Fh, 07h, 0Eh, 00h, 08h, 00h, 00h, 00h, 00h,0C2h,
                              3Fh
02B2 FF0F070E                
02B6 00080000                
02BA 0000C23F                
02BE 00000000        239             db       00h, 00h, 00h, 00h, 00h, 00h, 00h, 00h, 00h, 00h, 00h, 00h, 00h, 00h, 00h,
                              00h
02C2 00000000                
02C6 00000000                
A51 MACRO ASSEMBLER  12864_                                                               03/29/2005 13:34:16 PAGE     6

02CA 00000000                
02CE 20000000        240             db       20h, 00h, 00h, 00h, 00h, 00h, 12h, 00h, 00h, 02h,0C6h, 06h, 22h, 35h, 05h,
                              23h
02D2 00001200                
02D6 0002C606                
02DA 22350523                
02DE 232C3366        241             db       23h, 2Ch, 33h, 66h,0D7h,0FFh,0F7h,0DFh,0FFh,0CFh,0EFh,0EFh,0FFh,0FFh,0FFh,
                              1Fh
02E2 D7FFF7DF                
02E6 FFCFEFEF                
02EA FFFFFF1F                
02EE 0F8A2000        242             db       0Fh, 8Ah, 20h, 00h, 44h, 8Ch, 04h, 00h, 00h, 00h, 00h, 80h, 00h, 40h, 12h,
                              44h
02F2 448C0400                
02F6 00000080                
02FA 00401244                
02FE 00000000        243             db       00h, 00h, 00h, 00h, 00h, 00h, 00h, 00h, 00h, 00h, 00h, 00h, 00h, 00h, 40h,
                              40h
0302 00000000                
0306 00000000                
030A 00004040                
030E 40E04040        244             db       40h,0E0h, 40h, 40h, 40h,0E0h, 40h, 40h, 40h, 00h, 01h, 10h, 01h, 00h, 01h,
                              00h
0312 40E04040                
0316 40000110                
031A 01000100                
031E E00000A0        245             db      0E0h, 00h, 00h,0A0h,0C3h,0BFh,0BFh, 07h, 3Fh, 3Fh, 3Fh, 1Fh, 05h, 02h, 00h,
                              00h
0322 C3BFBF07                
0326 3F3F3F1F                
032A 05020000                
032E 00000100        246             db       00h, 00h, 01h, 00h, 00h, 00h, 00h, 00h, 00h, 00h, 00h, 00h, 01h, 00h, 00h,
                              00h
0332 00000000                
0336 00000000                
033A 01000000                
033E 00000000        247             db       00h, 00h, 00h, 00h, 00h, 00h, 00h, 00h, 00h, 00h, 00h, 00h, 00h, 00h, 22h,
                              2Ah
0342 00000000                
0346 00000000                
034A 0000222A                
034E 2A2AFF00        248             db       2Ah, 2Ah,0FFh, 00h,0FFh, 2Ah, 2Ah, 2Ah, 22h, 00h, 00h, 00h, 81h, 81h, 41h,
                              41h
0352 FF2A2A2A                
0356 22000000                
035A 81814141                
035E 231D3148        249             db       23h, 1Dh, 31h, 48h, 84h, 82h,0E0h, 00h, 00h, 00h, 00h, 00h, 00h, 00h, 00h,
                              00h
0362 8482E000                
0366 00000000                
036A 00000000                
036E 00000000        250             db       00h, 00h, 00h, 00h, 00h, 00h, 00h, 00h, 00h, 00h, 00h, 00h, 00h, 00h, 00h,
                              00h
0372 00000000                
0376 00000000                
037A 00000000                
                     251     
037E                 252     TAB2:
                     253     ;--  调入了一幅图像：纵向取模下高位,数据排列:从左到右从上到下 
                     254     ;--  宽度x高度=64x64 
037E 76BCFCEE        255     db   76h,0BCh,0FCh,0EEh, 80h,0F6h,0F6h,0FEh,0FEh,0FFh, 80h,0FFh, 7Eh,0FFh, 81h, 3Eh
0382 80F6F6FE                
0386 FEFF80FF                
038A 7EFF813E                
038E 3E36453F        256             db       3Eh, 36h, 45h, 3Fh, 1Fh, 3Fh, 01h, 3Eh, 3Eh, 3Eh, 41h, 7Fh,0FFh, 7Fh,0FFh,
                              7Fh
A51 MACRO ASSEMBLER  12864_                                                               03/29/2005 13:34:16 PAGE     7

0392 1F3F013E                
0396 3E3E417F                
039A FF7FFF7F                
039E 7F3F1F3F        257             db       7Fh, 3Fh, 1Fh, 3Fh, 1Fh, 9Fh, 3Fh, 9Fh, 1Fh, 3Fh, 5Fh, 1Fh, 7Fh, 7Fh,0FFh,
                             0FFh
03A2 1F9F3F9F                
03A6 1F3F5F1F                
03AA 7F7FFFFF                
03AE FFFF0000        258             db      0FFh,0FFh, 00h, 00h, 00h, 00h, 00h, 00h, 00h, 00h, 00h, 00h, 00h, 00h, 00h,
                              00h
03B2 00000000                
03B6 00000000                
03BA 00000000                
03BE A3FEFFFF        259             db      0A3h,0FEh,0FFh,0FFh,0FFh,0FFh,0FFh,0FFh,0BFh,0D3h, 41h, 02h, 01h, 00h, 00h,
                              00h
03C2 FFFFFFFF                
03C6 BFD34102                
03CA 01000000                
03CE 00000000        260             db       00h, 00h, 00h, 00h, 00h, 00h, 00h, 00h, 00h, 00h, 00h, 00h, 20h, 00h, 20h,
                              00h
03D2 00000000                
03D6 00000000                
03DA 20002000                
03DE 40000800        261             db       40h, 00h, 08h, 00h, 40h, 04h, 08h, 12h, 00h, 04h, 00h, 00h, 00h, 00h, 00h,
                              03h
03E2 40040812                
03E6 00040000                
03EA 00000003                
03EE 0F7F0000        262             db       0Fh, 7Fh, 00h, 00h, 00h, 00h, 00h, 00h, 00h, 00h, 00h, 00h, 00h, 00h, 00h,
                              00h
03F2 00000000                
03F6 00000000                
03FA 00000000                
03FE FFFFFFFF        263             db      0FFh,0FFh,0FFh,0FFh,0FFh,0FFh,0FFh,0FFh,0FFh,0FFh, 0Dh, 24h, 00h, 00h, 80h,
                             0A0h
0402 FFFFFFFF                
0406 FFFF0D24                
040A 000080A0                
040E 40E07070        264             db       40h,0E0h, 70h, 70h, 60h,0F8h,0F0h,0F0h,0F8h,0F0h,0F0h,0E0h,0F8h,0F0h, 68h,
                              00h
0412 60F8F0F0                
0416 F8F0F0E0                
041A F8F06800                
041E 8008B0B8        265             db       80h, 08h,0B0h,0B8h,0F0h,0F4h,0F0h,0FCh,0F9h,0F8h,0BAh,0F8h,0DCh,0B8h, 70h,
                              90h
0422 F0F4F0FC                
0426 F9F8BAF8                
042A DCB87090                
042E 204B0000        266             db       20h, 4Bh, 00h, 00h, 00h, 00h, 00h, 00h, 00h, 00h, 00h, 00h, 00h, 00h, 00h,
                              00h
0432 00000000                
0436 00000000                
043A 00000000                
043E 3F3F7F7F        267             db       3Fh, 3Fh, 7Fh, 7Fh,0FFh,0FFh,0FFh,0FFh, 5Fh, 00h, 00h, 01h, 00h, 05h, 02h,
                              05h
0442 FFFFFFFF                
0446 5F000001                
044A 00050205                
044E 050E0307        268             db       05h, 0Eh, 03h, 07h, 0Bh, 0Bh, 97h, 0Fh, 25h, 0Bh, 0Bh, 0Fh, 03h, 02h, 00h,
                              80h
0452 0B0B970F                
0456 250B0B0F                
045A 03020080                
045E 00140001        269             db       00h, 14h, 00h, 01h, 0Bh, 0Bh, 1Dh, 1Bh,0E7h, 0Fh, 5Bh, 03h, 03h, 03h, 05h,
                              04h
0462 0B0B1D1B                
A51 MACRO ASSEMBLER  12864_                                                               03/29/2005 13:34:16 PAGE     8

0466 E70F5B03                
046A 03030504                
046E 00000000        270             db       00h, 00h, 00h, 00h, 00h, 00h, 00h, 00h, 00h, 00h, 00h, 00h, 00h, 00h, 00h,
                              00h
0472 00000000                
0476 00000000                
047A 00000000                
047E E302A660        271             db      0E3h, 02h,0A6h, 60h,0F4h, 41h, 07h, 7Fh,0FDh, 50h,0C2h, 28h, 20h, 80h, 20h,
                              00h
0482 F441077F                
0486 FD50C228                
048A 20802000                
048E 80008000        272             db       80h, 00h, 80h, 00h, 00h, 00h, 04h, 00h,0A0h, 40h, 18h, 20h, 21h, 70h, 30h,
                             0E0h
0492 00000400                
0496 A0401820                
049A 217030E0                
049E 3AE039E0        273             db       3Ah,0E0h, 39h,0E0h, 38h, 70h, 30h, 00h, 10h, 45h, 89h, 12h, 04h, 10h, 00h,
                              00h
04A2 38703000                
04A6 10458912                
04AA 04100000                
04AE 00000000        274             db       00h, 00h, 00h, 00h, 00h, 00h, 00h, 00h, 00h, 00h, 00h, 00h, 00h, 00h, 00h,
                              00h
04B2 00000000                
04B6 00000000                
04BA 00000000                
04BE 11040901        275             db       11h, 04h, 09h, 01h, 53h, 84h,0C0h, 88h, 61h,0D5h, 24h, 49h, 22h, 88h, 10h,
                              42h
04C2 5384C088                
04C6 61D52449                
04CA 22881042                
04CE 00002400        276             db       00h, 00h, 24h, 00h, 00h, 00h, 00h, 44h,0A8h,0E0h,0C2h, 48h,0D1h, 64h, 60h,
                              64h
04D2 00000044                
04D6 A8E0C248                
04DA D1646064                
04DE 526D60EB        277             db       52h, 6Dh, 60h,0EBh,0B2h, 74h,0E4h, 60h,0CCh, 70h,0C0h, 82h, 08h, 00h, 00h,
                              00h
04E2 B274E460                
04E6 CC70C082                
04EA 08000000                
04EE 00000000        278             db       00h, 00h, 00h, 00h, 00h, 00h, 00h, 00h, 00h, 00h, 00h, 00h, 00h, 00h, 00h,
                              00h
04F2 00000000                
04F6 00000000                
04FA 00000000                
04FE 00000000        279             db       00h, 00h, 00h, 00h, 00h, 00h, 01h, 03h, 04h, 05h, 10h, 05h, 50h, 80h, 14h,
                              01h
0502 00000103                
0506 04051005                
050A 50801401                
050E 28100148        280             db       28h, 10h, 01h, 48h,0A0h, 00h,0A5h, 00h, 40h, 00h, 08h, 80h, 10h, 06h, 04h,
                              2Fh
0512 A000A500                
0516 40000880                
051A 1006042F                
051E 8E1F2ECE        281             db       8Eh, 1Fh, 2Eh,0CEh, 1Dh,0A6h, 16h, 0Ch, 22h, 48h,0B2h, 04h, 00h, 00h, 00h,
                              00h
0522 1DA6160C                
0526 2248B204                
052A 00000000                
052E 00000000        282             db       00h, 00h, 00h, 00h, 00h, 00h, 00h, 00h, 00h, 00h, 00h, 00h, 00h, 00h, 00h,
                              00h
0532 00000000                
0536 00000000                
A51 MACRO ASSEMBLER  12864_                                                               03/29/2005 13:34:16 PAGE     9

053A 00000000                
053E 00000000        283             db       00h, 00h, 00h, 00h, 00h, 00h, 40h, 20h, 28h, 08h, 00h, 00h, 00h, 00h, 02h,
                              15h
0542 00004020                
0546 28080000                
054A 00000215                
054E 22042A18        284             db       22h, 04h, 2Ah, 18h, 22h, 5Ch, 52h, 2Ch, 52h, 38h, 64h, 52h, 7Ch, 61h, 3Ah,
                              6Ch
0552 225C522C                
0556 52386452                
055A 7C613A6C                
055E 79767D7E        285             db       79h, 76h, 7Dh, 7Eh, 7Ch, 7Bh, 7Eh, 7Ah, 7Ah, 74h, 7Ch, 52h, 2Ch, 0Ah, 00h,
                              00h
0562 7C7B7E7A                
0566 7A747C52                
056A 2C0A0000                
056E 001E0000        286             db       00h, 1Eh, 00h, 00h, 00h, 00h, 00h, 00h, 00h, 00h, 00h, 00h, 00h, 00h, 00h,
                              00h
0572 00000000                
0576 00000000                
057A 00000000                
                     287     
                     288     
                     289     
057E                 290     TAB3:
                     291     ;--  调入了一幅图像：纵向取模下高位,数据排列:从左到右从上到下 
                     292     ;--  宽度x高度=64x64 
057E FF010101        293     db  0FFh, 01h, 01h, 01h,0C1h, 01h, 01h, 01h,0C1h, 01h,0C1h, 41h, 41h, 41h, 41h, 01h
0582 C1010101                
0586 C101C141                
058A 41414101                
058E 81414141        294             db       81h, 41h, 41h, 41h, 81h, 01h, 81h, 41h, 41h, 41h, 81h, 01h, 81h, 41h, 41h,
                              41h
0592 81018141                
0596 41418101                
059A 81414141                
059E 8101C141        295             db       81h, 01h,0C1h, 41h, 41h, 41h, 81h, 01h, 01h, 01h, 01h,0C1h, 41h, 61h,0C1h,
                              41h
05A2 41418101                
05A6 010101C1                
05AA 4161C141                
05AE 6141C101        296             db       61h, 41h,0C1h, 01h, 01h, 01h, 01h, 01h,0E1h, 01h, 01h, 01h,0F1h, 01h, 01h,
                              01h
05B2 01010101                
05B6 E1010101                
05BA F1010101                
05BE FF000000        297             db      0FFh, 00h, 00h, 00h, 3Fh, 03h, 3Ch, 03h, 3Fh, 00h, 3Fh, 22h, 22h, 22h, 20h,
                              00h
05C2 3F033C03                
05C6 3F003F22                
05CA 22222000                
05CE 18202222        298             db       18h, 20h, 22h, 22h, 1Dh, 00h, 1Fh, 20h, 20h, 20h, 1Fh, 00h, 1Fh, 20h, 20h,
                              20h
05D2 1D001F20                
05D6 20201F00                
05DA 1F202020                
05DE 1F003F22        299             db       1Fh, 00h, 3Fh, 22h, 22h, 22h, 1Dh, 00h, 00h, 00h, 10h, 17h, 15h, 15h, 7Fh,
                              15h
05E2 22221D00                
05E6 00001017                
05EA 15157F15                
05EE 15151710        300             db       15h, 15h, 17h, 10h, 00h, 00h, 40h, 70h, 0Fh, 05h, 05h, 05h, 04h, 7Dh, 01h,
                              00h
05F2 00004070                
05F6 0F050505                
05FA 047D0100                
A51 MACRO ASSEMBLER  12864_                                                               03/29/2005 13:34:16 PAGE    10

05FE FF000000        301             db      0FFh, 00h, 00h, 00h, 00h, 02h, 02h, 02h, 02h, 02h, 02h, 02h, 02h, 02h, 02h,
                              02h
0602 00020202                
0606 02020202                
060A 02020202                
060E 02020202        302             db       02h, 02h, 02h, 02h, 02h, 02h, 02h, 82h, 62h, 22h,0A2h, 22h, 32h,0A2h, 22h,
                              22h
0612 02020282                
0616 6222A222                
061A 32A22222                
061E A2620212        303             db      0A2h, 62h, 02h, 12h,0D2h, 12h,0F2h, 02h, 82h, 42h, 32h, 42h, 82h, 02h, 02h,
                              02h
0622 D212F202                
0626 82423242                
062A 82020202                
062E 02020202        304             db       02h, 02h, 02h, 02h, 02h, 02h, 02h, 02h, 02h, 02h, 02h, 82h, 42h, 32h, 82h,
                             0E2h
0632 02020202                
0636 02020282                
063A 423282E2                
063E FF000000        305             db      0FFh, 00h, 00h, 00h, 00h, 00h, 00h, 00h, 00h, 00h, 00h, 00h, 00h, 00h, 00h,
                              00h
0642 00000000                
0646 00000000                
064A 00000000                
064E 00000000        306             db       00h, 00h, 00h, 00h, 00h, 00h, 00h, 08h, 48h, 4Ah, 4Ch, 29h, 18h, 0Fh, 18h,
                              28h
0652 00000008                
0656 484A4C29                
065A 180F1828                
065E 48080012        307             db       48h, 08h, 00h, 12h, 53h, 4Ah, 3Fh, 41h, 5Ch, 41h, 5Dh, 61h, 5Ch, 41h, 00h,
                              08h
0662 534A3F41                
0666 5C415D61                
066A 5C410008                
066E 10300000        308             db       10h, 30h, 00h, 00h, 00h, 00h, 00h, 00h, 00h, 00h, 00h, 2Dh, 2Bh, 55h, 24h,
                              7Fh
0672 00000000                
0676 0000002D                
067A 2B55247F                
067E FF000000        309             db      0FFh, 00h, 00h, 00h, 10h, 10h,0F0h, 10h, 10h, 00h, 60h, 90h, 90h, 10h, 30h,
                              00h
0682 1010F010                
0686 10006090                
068A 90103000                
068E 10F09090        310             db       10h,0F0h, 90h, 90h, 60h, 00h, 00h, 00h, 00h, 18h, 08h, 28h, 28h, 28h, 2Ch,
                              28h
0692 60000000                
0696 00180828                
069A 28282C28                
069E 28280818        311             db       28h, 28h, 08h, 18h, 00h, 80h,0A8h,0A8h,0ACh,0A8h,0F8h,0A8h,0ACh,0A8h,0A8h,
                              80h
06A2 0080A8A8                
06A6 ACA8F8A8                
06AA ACA8A880                
06AE 006050CC        312             db       00h, 60h, 50h,0CCh, 30h, 00h,0F8h, 48h, 48h, 48h,0FCh, 08h, 00h, 40h, 40h,
                              20h
06B2 3000F848                
06B6 4848FC08                
06BA 00404020                
06BE FF000000        313             db      0FFh, 00h, 00h, 00h, 08h, 08h, 0Fh, 08h, 08h, 00h, 0Ch, 08h, 08h, 09h, 06h,
                              00h
06C2 08080F08                
06C6 08000C08                
06CA 08090600                
06CE 080F0800        314             db       08h, 0Fh, 08h, 00h, 00h, 00h, 00h, 00h, 00h, 11h, 11h, 09h, 07h, 01h, 01h,
A51 MACRO ASSEMBLER  12864_                                                               03/29/2005 13:34:16 PAGE    11

                              1Fh
06D2 00000000                
06D6 00111109                
06DA 0701011F                
06DE 1111111D        315             db       11h, 11h, 11h, 1Dh, 00h, 10h, 12h, 12h, 0Ah, 06h, 03h, 06h, 0Ah, 12h, 12h,
                              10h
06E2 00101212                
06E6 0A060306                
06EA 0A121210                
06EE 00120B0A        316             db       00h, 12h, 0Bh, 0Ah, 15h, 10h, 1Fh, 12h, 12h, 12h, 1Fh, 10h, 00h, 00h, 00h,
                              1Eh
06F2 15101F12                
06F6 12121F10                
06FA 0000001E                
06FE FF000000        317             db      0FFh, 00h, 00h, 00h, 00h, 00h,0FEh, 20h, 20h, 20h, 00h,0FEh, 20h, 20h, 10h,
                              08h
0702 0000FE20                
0706 202000FE                
070A 20201008                
070E 00000000        318             db       00h, 00h, 00h, 00h, 00h, 00h, 00h, 38h, 08h, 2Ah, 2Ch, 2Ah,0ACh, 68h, 28h,
                              0Eh
0712 00000038                
0716 082A2C2A                
071A AC68280E                
071E 28180000        319             db       28h, 18h, 00h, 00h, 04h, 04h, 0Ch, 34h, 04h, 84h, 84h, 04h,0FEh, 04h, 00h,
                              40h
0722 04040C34                
0726 04848404                
072A FE040040                
072E 4444FC44        320             db       44h, 44h,0FCh, 44h, 44h, 44h,0FCh, 44h, 46h, 44h, 00h, 10h, 1Ch, 10h,0F0h,
                              5Eh
0732 4444FC44                
0736 46440010                
073A 1C10F05E                
073E FF808080        321             db      0FFh, 80h, 80h, 80h, 80h, 80h, 8Fh, 84h, 84h, 82h, 80h, 8Fh, 88h, 88h, 88h,
                              8Fh
0742 80808F84                
0746 8482808F                
074A 8888888F                
074E 8080909E        322             db       80h, 80h, 90h, 9Eh, 8Eh, 80h, 80h, 81h, 81h, 81h, 89h, 89h, 8Fh, 81h, 81h,
                              81h
0752 8E808081                
0756 81818989                
075A 8F818181                
075E 81818082        323             db       81h, 81h, 80h, 82h, 86h, 82h, 82h, 81h, 81h, 88h, 88h, 88h, 87h, 80h, 80h,
                              88h
0762 86828281                
0766 81888888                
076A 87808088                
076E 88848380        324             db       88h, 84h, 83h, 80h, 80h, 80h, 8Fh, 80h, 80h, 80h, 80h, 88h, 84h, 8Bh, 88h,
                              84h
0772 80808F80                
0776 80808088                
077A 848B8884                
                     325     
                     326     
                     327     
                     328     
                     329     
077E                 330     TAB4: 
                     331     ;--  调入了一幅图像：纵向取模下高位,数据排列:从左到右从上到下 
                     332     ;--  宽度x高度=64x64 
077E 010181F1        333     db   01h, 01h, 81h,0F1h, 81h, 81h, 01h,0E1h, 21h, 21h,0E1h, 01h, 01h, 01h, 01h, 21h
0782 818101E1                
0786 2121E101                
078A 01010121                
A51 MACRO ASSEMBLER  12864_                                                               03/29/2005 13:34:16 PAGE    12

078E 21E12121        334             db       21h,0E1h, 21h, 21h,0E1h, 21h, 21h, 21h, 01h, 01h, 81h,0E1h,0A1h, 81h,0F1h,
                              81h
0792 E1212121                
0796 010181E1                
079A A181F181                
079E 81E18181        335             db       81h,0E1h, 81h, 81h, 01h, 01h, 01h, 21h, 21h,0A1h, 61h, 21h,0E1h,0A1h, 11h,
                              01h
07A2 01010121                
07A6 21A16121                
07AA E1A11101                
07AE 01018161        336             db       01h, 01h, 81h, 61h, 81h, 81h, 41h, 41h,0C1h, 61h, 41h, 41h, 01h, 01h, 01h,
                             0FFh
07B2 81814141                
07B6 C1614141                
07BA 010101FF                
07BE 00000C7F        337             db       00h, 00h, 0Ch, 7Fh, 02h, 44h, 70h, 0Fh, 00h, 00h, 7Fh, 60h, 00h, 00h, 02h,
                              62h
07C2 0244700F                
07C6 00007F60                
07CA 00000262                
07CE 320F0202        338             db       32h, 0Fh, 02h, 02h, 7Fh, 02h, 02h, 02h, 00h, 00h, 30h, 58h, 4Ch, 43h, 2Eh,
                              32h
07D2 7F020202                
07D6 00003058                
07DA 4C432E32                
07DE 322E4240        339             db       32h, 2Eh, 42h, 40h, 00h, 00h, 20h, 24h, 15h, 07h, 45h, 7Dh, 04h, 16h, 3Eh,
                              24h
07E2 00002024                
07E6 1507457D                
07EA 04163E24                
07EE 00002D2B        340             db       00h, 00h, 2Dh, 2Bh, 29h, 60h, 42h, 3Fh, 02h, 7Eh, 43h, 62h, 00h, 00h, 00h,
                             0FFh
07F2 2960423F                
07F6 027E4362                
07FA 000000FF                
07FE A2A2B2A2        341             db      0A2h,0A2h,0B2h,0A2h,0A2h,0E2h, 02h,0A2h,0A2h,0F2h, 92h, 02h,0F2h, 92h, 92h,
                              92h
0802 A2E202A2                
0806 A2F29202                
080A F2929292                
080E F2020202        342             db      0F2h, 02h, 02h, 02h, 02h, 02h, 02h, 02h, 02h, 02h, 02h, 02h, 02h, 02h, 02h,
                              02h
0812 02020202                
0816 02020202                
081A 02020202                
081E 82E25242        343             db       82h,0E2h, 52h, 42h, 42h,0D2h, 62h, 42h, 42h, 42h, 02h, 22h, 22h,0E2h, 62h,
                              62h
0822 42D26242                
0826 42420222                
082A 22E26262                
082E 7262E222        344             db       72h, 62h,0E2h, 22h, 22h, 02h, 02h, 02h, 02h, 02h, 02h, 02h, 00h, 00h, 00h,
                             0FFh
0832 22020202                
0836 02020202                
083A 000000FF                
083E 0A3E0A3E        345             db       0Ah, 3Eh, 0Ah, 3Eh, 4Ah, 7Eh, 00h, 18h, 06h, 7Fh, 04h, 42h, 4Ah, 4Ah, 7Eh,
                              4Ah
0842 4A7E0018                
0846 067F0442                
084A 4A4A7E4A                
084E 4A420008        346             db       4Ah, 42h, 00h, 08h, 10h, 30h, 00h, 00h, 00h, 00h, 00h, 00h, 00h, 00h, 00h,
                              01h
0852 10300000                
0856 00000000                
085A 00000001                
085E 007F4020        347             db       00h, 7Fh, 40h, 20h, 18h, 07h, 41h, 41h, 3Fh, 00h, 00h, 50h, 50h, 5Fh, 35h,
A51 MACRO ASSEMBLER  12864_                                                               03/29/2005 13:34:16 PAGE    13

                              15h
0862 18074141                
0866 3F000050                
086A 505F3515                
086E 15153F50        348             db       15h, 15h, 3Fh, 50h, 50h, 10h, 00h, 08h, 10h, 30h, 00h, 00h, 00h, 00h, 00h,
                             0FFh
0872 50100008                
0876 10300000                
087A 000000FF                
087E 50484448        349             db       50h, 48h, 44h, 48h, 50h, 20h, 40h, 40h, 00h, 00h, 00h, 00h, 00h, 00h, 10h,
                              90h
0882 50204040                
0886 00000000                
088A 00001090                
088E 9090FC00        350             db       90h, 90h,0FCh, 00h,0FCh, 90h, 90h, 90h, 10h, 00h, 00h, 00h, 00h,0F8h, 48h,
                              88h
0892 FC909090                
0896 10000000                
089A 00F84888                
089E 08FC0800        351             db       08h,0FCh, 08h, 00h, 00h, 00h, 60h,0FCh, 20h, 80h, 78h, 20h, 20h,0FCh, 20h,
                              30h
08A2 000060FC                
08A6 20807820                
08AA 20FC2030                
08AE 20004020        352             db       20h, 00h, 40h, 20h,0F8h, 44h, 20h,0D0h, 0Ch, 08h,0D0h, 20h, 40h, 00h, 00h,
                             0FFh
08B2 F84420D0                
08B6 0C08D020                
08BA 400000FF                
08BE 12121212        353             db       12h, 12h, 12h, 12h, 12h, 1Eh, 00h, 00h, 00h, 20h, 3Ch, 1Ch, 00h, 00h, 04h,
                              04h
08C2 121E0000                
08C6 00203C1C                
08CA 00000404                
08CE 04041F00        354             db       04h, 04h, 1Fh, 00h, 1Fh, 04h, 04h, 04h, 04h, 00h, 10h, 08h, 04h, 03h, 00h,
                              01h
08D2 1F040404                
08D6 04001008                
08DA 04030001                
08DE 001F1010        355             db       00h, 1Fh, 10h, 10h, 1Eh, 00h, 00h, 1Fh, 00h, 10h, 11h, 11h, 11h, 1Fh, 11h,
                              11h
08E2 1E00001F                
08E6 00101111                
08EA 111F1111                
08EE 11000000        356             db       11h, 00h, 00h, 00h, 1Fh, 10h, 08h, 07h, 00h, 00h, 1Fh, 00h, 00h, 00h, 00h,
                             0FFh
08F2 1F100807                
08F6 00001F00                
08FA 000000FF                
08FE D05052D4        357             db      0D0h, 50h, 52h,0D4h, 10h, 10h, 00h, 64h, 5Ch,0F6h, 44h, 44h,0C2h,0A2h, 92h,
                              8Ah
0902 10100064                
0906 5CF64444                
090A C2A2928A                
090E 96600088        358             db       96h, 60h, 00h, 88h, 48h,0FEh, 48h, 20h, 18h, 06h,0C0h, 0Eh, 30h, 40h, 00h,
                              00h
0912 48FE4820                
0916 1806C00E                
091A 30400000                
091E 00FC2424        359             db       00h,0FCh, 24h, 24h, 26h, 24h, 24h, 24h,0FCh, 00h, 00h, 08h,0C8h, 3Eh, 08h,
                             0F8h
0922 26242424                
0926 FC000008                
092A C83E08F8                
092E 00F80808        360             db       00h,0F8h, 08h, 08h, 08h,0F8h, 00h, 00h, 38h,0FCh,0FCh, 38h, 00h, 00h, 00h,
                             0FFh
A51 MACRO ASSEMBLER  12864_                                                               03/29/2005 13:34:16 PAGE    14

0932 08F80000                
0936 38FCFC38                
093A 000000FF                
093E 85828584        361             db       85h, 82h, 85h, 84h, 88h, 88h, 80h, 82h, 82h, 8Fh, 81h, 89h, 88h, 88h, 8Fh,
                              88h
0942 88888082                
0946 828F8189                
094A 88888F88                
094E 88888081        362             db       88h, 88h, 80h, 81h, 80h, 8Fh, 80h, 88h, 8Ch, 8Bh, 88h, 8Ah, 8Ch, 80h, 80h,
                              80h
0952 808F8088                
0956 8C8B888A                
095A 8C808080                
095E 808F8989        363             db       80h, 8Fh, 89h, 89h, 89h, 89h, 89h, 89h, 8Fh, 80h, 80h, 88h, 89h, 85h, 82h,
                              85h
0962 89898989                
0966 8F808088                
096A 89858285                
096E 80878484        364             db       80h, 87h, 84h, 84h, 84h, 87h, 80h, 80h, 80h, 86h, 86h, 80h, 80h, 80h, 80h,
                             0FFh
0972 84878080                
0976 80868680                
097A 808080FF                
                     365           
097E                 366     TAB5:
097E FF010101        367     db  0FFh, 01h, 01h, 01h,0C1h, 01h, 01h, 01h,0C1h, 01h,0C1h, 41h, 41h, 41h, 41h, 01h
0982 C1010101                
0986 C101C141                
098A 41414101                
098E 81414141        368             db       81h, 41h, 41h, 41h, 81h, 01h, 81h, 41h, 41h, 41h, 81h, 01h, 81h, 41h, 41h,
                              41h
0992 81018141                
0996 41418101                
099A 81414141                
099E 8101C141        369             db       81h, 01h,0C1h, 41h, 41h, 41h, 81h, 01h, 01h, 01h, 01h,0C1h, 41h, 61h,0C1h,
                              41h
09A2 41418101                
09A6 010101C1                
09AA 4161C141                
09AE 6141C101        370             db       61h, 41h,0C1h, 01h, 01h, 01h, 01h, 01h,0E1h, 01h, 01h, 01h,0F1h, 01h, 01h,
                              01h
09B2 01010101                
09B6 E1010101                
09BA F1010101                
09BE FF000000        371             db      0FFh, 00h, 00h, 00h, 3Fh, 03h, 3Ch, 03h, 3Fh, 00h, 3Fh, 22h, 22h, 22h, 20h,
                              00h
09C2 3F033C03                
09C6 3F003F22                
09CA 22222000                
09CE 18202222        372             db       18h, 20h, 22h, 22h, 1Dh, 00h, 1Fh, 20h, 20h, 20h, 1Fh, 00h, 1Fh, 20h, 20h,
                              20h
09D2 1D001F20                
09D6 20201F00                
09DA 1F202020                
09DE 1F003F22        373             db       1Fh, 00h, 3Fh, 22h, 22h, 22h, 1Dh, 00h, 00h, 00h, 10h, 17h, 15h, 15h, 7Fh,
                              15h
09E2 22221D00                
09E6 00001017                
09EA 15157F15                
09EE 15151710        374             db       15h, 15h, 17h, 10h, 00h, 00h, 40h, 70h, 0Fh, 05h, 05h, 05h, 04h, 7Dh, 01h,
                              00h
09F2 00004070                
09F6 0F050505                
09FA 047D0100                
09FE FF000000        375             db      0FFh, 00h, 00h, 00h, 00h, 00h, 00h, 00h, 00h, 00h, 00h, 00h, 00h, 00h, 00h,
                              00h
A51 MACRO ASSEMBLER  12864_                                                               03/29/2005 13:34:16 PAGE    15

0A02 00000000                
0A06 00000000                
0A0A 00000000                
0A0E 00000000        376             db       00h, 00h, 00h, 00h, 00h, 00h, 00h, 00h, 00h, 00h, 00h, 00h, 00h, 00h, 00h,
                              00h
0A12 00000000                
0A16 00000000                
0A1A 00000000                
0A1E 00000000        377             db       00h, 00h, 00h, 00h, 00h, 00h, 00h, 00h, 00h, 00h, 00h, 00h, 00h, 00h, 00h,
                              00h
0A22 00000000                
0A26 00000000                
0A2A 00000000                
0A2E 00000000        378             db       00h, 00h, 00h, 00h, 00h, 00h, 00h, 00h, 00h, 00h, 00h, 00h, 00h, 00h, 00h,
                              00h
0A32 00000000                
0A36 00000000                
0A3A 00000000                
0A3E FF000000        379             db      0FFh, 00h, 00h, 00h, 00h, 00h, 00h, 00h, 00h, 00h, 00h,0FEh,0FEh,0FEh,0FEh,
                             0FEh
0A42 00000000                
0A46 000000FE                
0A4A FEFEFEFE                
0A4E FEF00000        380             db      0FEh,0F0h, 00h, 00h, 00h, 0Eh,0FEh,0FEh,0FEh,0FEh,0FEh, 80h, 80h,0C0h,0C0h,
                             0C0h
0A52 000EFEFE                
0A56 FEFEFE80                
0A5A 80C0C0C0                
0A5E FEFEFEFE        381             db      0FEh,0FEh,0FEh,0FEh,0FEh,0FEh,0E0h,0E0h,0E0h,0C0h,0C0h, 00h, 00h, 00h, 00h,
                              18h
0A62 FEFEE0E0                
0A66 E0C0C000                
0A6A 00000018                
0A6E 180CFCFE        382             db       18h, 0Ch,0FCh,0FEh, 82h,0ECh,0D4h, 54h, 54h,0FFh,0FFh, 54h, 54h, 54h, 54h,
                             0C0h
0A72 82ECD454                
0A76 54FFFF54                
0A7A 545454C0                
0A7E FF000000        383             db      0FFh, 00h, 00h, 00h, 00h, 00h, 00h, 00h, 00h, 00h, 00h, 80h,0CFh,0FFh,0FFh,
                             0FFh
0A82 00000000                
0A86 00000080                
0A8A CFFFFFFF                
0A8E FFFFFC1C        384             db      0FFh,0FFh,0FCh, 1Ch, 0Eh, 0Eh, 07h, 7Fh,0FFh,0FFh,0FFh,0FFh,0C1h, 00h, 00h,
                              00h
0A92 0E0E077F                
0A96 FFFFFFFF                
0A9A C1000000                
0A9E 0007FFFF        385             db       00h, 07h,0FFh,0FFh,0FFh, 80h,0E0h,0F0h, 38h, 3Fh, 1Fh, 03h, 00h, 00h, 00h,
                              00h
0AA2 FF80E0F0                
0AA6 383F1F03                
0AAA 00000000                
0AAE 00001F0F        386             db       00h, 00h, 1Fh, 0Fh, 00h, 00h, 00h, 00h, 00h, 1Fh, 1Fh, 04h, 02h, 02h, 03h,
                              01h
0AB2 00000000                
0AB6 001F1F04                
0ABA 02020301                
0ABE FF000000        387             db      0FFh, 00h, 00h, 00h,0C0h,0E0h,0F0h, 3Ch, 1Ch, 0Eh, 03h, 03h, 01h, 07h, 7Fh,
                             0FFh
0AC2 C0E0F03C                
0AC6 1C0E0303                
0ACA 01077FFF                
0ACE FFFFFFFF        388             db      0FFh,0FFh,0FFh,0FFh, 00h, 00h, 00h, 00h,0FFh,0FFh,0FFh,0FFh,0FFh,0F0h, 70h,
                              38h
0AD2 00000000                
A51 MACRO ASSEMBLER  12864_                                                               03/29/2005 13:34:16 PAGE    16

0AD6 FFFFFFFF                
0ADA FFF07038                
0ADE 3C1C0EFF        389             db       3Ch, 1Ch, 0Eh,0FFh, 07h, 03h, 00h, 00h, 00h, 00h, 00h, 00h, 00h, 00h, 00h,
                              00h
0AE2 07030000                
0AE6 00000000                
0AEA 00000000                
0AEE 02020202        390             db       02h, 02h, 02h, 02h, 02h, 02h, 02h, 02h, 02h, 02h, 02h, 02h, 02h, 02h, 02h,
                              02h
0AF2 02020202                
0AF6 02020202                
0AFA 02020202                
0AFE FF000006        391             db      0FFh, 00h, 00h, 06h, 0Fh, 0Fh, 1Ch, 18h, 18h, 18h, 18h, 18h, 18h, 18h, 18h,
                              3Fh
0B02 0F0F1C18                
0B06 18181818                
0B0A 1818183F                
0B0E FFFFFFFF        392             db      0FFh,0FFh,0FFh,0FFh,0FEh,0E6h, 07h, 07h, 07h, 7Fh,0FFh,0FFh,0FFh,0FFh,0F0h,
                              00h
0B12 FEE60707                
0B16 077FFFFF                
0B1A FFFFF000                
0B1E 00000000        393             db       00h, 00h, 00h, 00h, 00h, 00h, 00h, 00h, 00h, 00h, 00h, 03h, 1Ch, 60h, 1Ch,
                              03h
0B22 00000000                
0B26 00000003                
0B2A 1C601C03                
0B2E 031C601C        394             db       03h, 1Ch, 60h, 1Ch, 03h, 1Ch, 60h, 1Ch, 03h, 03h, 1Ch, 60h, 1Ch, 03h, 1Ch,
                              60h
0B32 031C601C                
0B36 03031C60                
0B3A 1C031C60                
0B3E FF808080        395             db      0FFh, 80h, 80h, 80h, 80h, 80h, 80h, 80h, 80h, 80h, 80h, 80h, 80h, 80h, 80h,
                              80h
0B42 80808080                
0B46 80808080                
0B4A 80808080                
0B4E 81818181        396             db       81h, 81h, 81h, 81h, 81h, 81h, 80h, 80h, 80h, 80h, 81h, 81h, 81h, 81h, 81h,
                              80h
0B52 81818080                
0B56 80808181                
0B5A 81818180                
0B5E 80808080        397             db       80h, 80h, 80h, 80h, 80h, 80h, 80h, 80h, 80h, 80h, 80h, 80h, 80h, 80h, 80h,
                              80h
0B62 80808080                
0B66 80808080                
0B6A 80808080                
0B6E 80808080        398             db       80h, 80h, 80h, 80h, 80h, 80h, 80h, 80h, 80h, 80h, 80h, 80h, 80h, 80h, 80h,
                              80h
0B72 80808080                
0B76 80808080                
0B7A 80808080                
                     399     
                     400     
                     401     
                     402     
0B7E                 403     TAB6: 
0B7E 010181F1        404     db   01h, 01h, 81h,0F1h, 81h, 81h, 01h,0E1h, 21h, 21h,0E1h, 01h, 01h, 01h, 01h, 21h
0B82 818101E1                
0B86 2121E101                
0B8A 01010121                
0B8E 21E12121        405             db       21h,0E1h, 21h, 21h,0E1h, 21h, 21h, 21h, 01h, 01h, 81h,0E1h,0A1h, 81h,0F1h,
                              81h
0B92 E1212121                
0B96 010181E1                
0B9A A181F181                
A51 MACRO ASSEMBLER  12864_                                                               03/29/2005 13:34:16 PAGE    17

0B9E 81E18181        406             db       81h,0E1h, 81h, 81h, 01h, 01h, 01h, 21h, 21h,0A1h, 61h, 21h,0E1h,0A1h, 11h,
                              01h
0BA2 01010121                
0BA6 21A16121                
0BAA E1A11101                
0BAE 01018161        407             db       01h, 01h, 81h, 61h, 81h, 81h, 41h, 41h,0C1h, 61h, 41h, 41h, 01h, 01h, 01h,
                             0FFh
0BB2 81814141                
0BB6 C1614141                
0BBA 010101FF                
0BBE 00000C7F        408             db       00h, 00h, 0Ch, 7Fh, 02h, 44h, 70h, 0Fh, 00h, 00h, 7Fh, 60h, 00h, 00h, 02h,
                              62h
0BC2 0244700F                
0BC6 00007F60                
0BCA 00000262                
0BCE 320F0202        409             db       32h, 0Fh, 02h, 02h, 7Fh, 02h, 02h, 02h, 00h, 00h, 30h, 58h, 4Ch, 43h, 2Eh,
                              32h
0BD2 7F020202                
0BD6 00003058                
0BDA 4C432E32                
0BDE 322E4240        410             db       32h, 2Eh, 42h, 40h, 00h, 00h, 20h, 24h, 15h, 07h, 45h, 7Dh, 04h, 16h, 3Eh,
                              24h
0BE2 00002024                
0BE6 1507457D                
0BEA 04163E24                
0BEE 00002D2B        411             db       00h, 00h, 2Dh, 2Bh, 29h, 60h, 42h, 3Fh, 02h, 7Eh, 43h, 62h, 00h, 00h, 00h,
                             0FFh
0BF2 2960423F                
0BF6 027E4362                
0BFA 000000FF                
0BFE 00000000        412             db       00h, 00h, 00h, 00h, 00h, 00h, 00h, 00h, 00h, 00h, 00h, 00h, 00h, 00h, 00h,
                              00h
0C02 00000000                
0C06 00000000                
0C0A 00000000                
0C0E 00000000        413             db       00h, 00h, 00h, 00h, 00h, 00h, 00h, 00h, 00h, 00h, 00h, 00h, 00h, 00h, 00h,
                              00h
0C12 00000000                
0C16 00000000                
0C1A 00000000                
0C1E 00000000        414             db       00h, 00h, 00h, 00h, 00h, 00h, 00h, 00h, 00h, 00h, 00h, 00h, 00h, 00h, 00h,
                              00h
0C22 00000000                
0C26 00000000                
0C2A 00000000                
0C2E 00000000        415             db       00h, 00h, 00h, 00h, 00h, 00h, 00h, 00h, 00h, 00h, 00h, 00h, 00h, 00h, 00h,
                             0FFh
0C32 00000000                
0C36 00000000                
0C3A 000000FF                
0C3E C0000000        416             db      0C0h, 00h, 00h, 00h, 30h,0B0h,0E8h,0A4h,0B6h, 10h, 08h,0F8h, 18h, 88h,0FEh,
                             0FEh
0C42 30B0E8A4                
0C46 B61008F8                
0C4A 1888FEFE                
0C4E 8808F8F8        417             db       88h, 08h,0F8h,0F8h, 00h, 00h, 00h, 00h, 7Ch,0FCh,0ACh,0A4h,0A4h,0FCh,0FFh,
                             0A4h
0C52 00000000                
0C56 7CFCACA4                
0C5A A4FCFFA4                
0C5E A4A4A4FC        418             db      0A4h,0A4h,0A4h,0FCh,0FCh, 00h, 00h, 00h, 00h, 00h, 00h, 60h, 60h, 60h, 64h,
                              26h
0C62 FC000000                
0C66 00000060                
0C6A 60606426                
0C6E 2622222A        419             db       26h, 22h, 22h, 2Ah,0FAh,0FAh, 2Eh, 26h, 66h, 60h, 60h, 60h, 60h, 00h, 00h,
A51 MACRO ASSEMBLER  12864_                                                               03/29/2005 13:34:16 PAGE    18

                             0FFh
0C72 FAFA2E26                
0C76 66606060                
0C7A 600000FF                
0C7E 0000040C        420             db       00h, 00h, 04h, 0Ch, 04h, 05h, 05h, 02h, 0Ah, 0Ah, 0Eh, 07h, 03h, 01h, 00h,
                              00h
0C82 04050502                
0C86 0A0A0E07                
0C8A 03010000                
0C8E 01010F0F        421             db       01h, 01h, 0Fh, 0Fh, 00h, 00h, 00h, 00h, 00h, 01h, 01h, 01h, 01h, 00h, 07h,
                              0Eh
0C92 00000000                
0C96 00010101                
0C9A 0100070E                
0C9E 0C0C1C1D        422             db       0Ch, 0Ch, 1Ch, 1Dh, 1Ch, 1Ch, 1Ch, 0Ch, 06h, 00h, 00h, 00h, 00h, 00h, 00h,
                              08h
0CA2 1C1C1C0C                
0CA6 06000000                
0CAA 00000008                
0CAE 0818181C        423             db       08h, 18h, 18h, 1Ch, 0Fh, 07h, 00h, 00h, 00h, 00h, 00h, 00h, 00h, 00h, 00h,
                             0FFh
0CB2 0F070000                
0CB6 00000000                
0CBA 000000FF                
0CBE 02020202        424             db       02h, 02h, 02h, 02h, 02h, 02h, 02h, 02h, 02h, 02h, 02h, 02h, 02h, 02h, 02h,
                              42h
0CC2 02020202                
0CC6 02020202                
0CCA 02020242                
0CCE 0202C202        425             db       02h, 02h,0C2h, 02h, 02h,0C2h, 02h, 02h, 02h, 02h, 02h, 02h, 02h, 02h, 02h,
                              02h
0CD2 02C20202                
0CD6 02020202                
0CDA 02020202                
0CDE 02020202        426             db       02h, 02h, 02h, 02h, 02h, 02h, 02h, 02h, 02h, 02h, 02h, 02h, 02h, 02h, 02h,
                              02h
0CE2 02020202                
0CE6 02020202                
0CEA 02020202                
0CEE 02020202        427             db       02h, 02h, 02h, 02h, 02h, 02h, 02h, 02h, 02h, 02h, 02h, 02h, 00h, 00h, 00h,
                             0FFh
0CF2 02020202                
0CF6 02020202                
0CFA 000000FF                
0CFE 1C030040        428             db       1Ch, 03h, 00h, 40h, 00h, 03h, 1Ch, 60h, 1Ch, 03h, 1Ch, 60h, 1Ch, 03h, 00h,
                              7Fh
0D02 00031C60                
0D06 1C031C60                
0D0A 1C03007F                
0D0E 00007F00        429             db       00h, 00h, 7Fh, 00h, 00h, 7Fh, 00h, 00h, 32h, 49h, 49h, 29h, 7Eh, 00h, 00h,
                              7Fh
0D12 007F0000                
0D16 32494929                
0D1A 7E00007F                
0D1E 02014000        430             db       02h, 01h, 40h, 00h, 00h, 3Eh, 41h, 41h, 22h, 00h, 00h, 3Eh, 41h, 41h, 41h,
                              3Eh
0D22 003E4141                
0D26 2200003E                
0D2A 4141413E                
0D2E 00007F02        431             db       00h, 00h, 7Fh, 02h, 01h, 01h, 7Eh, 02h, 01h, 01h, 7Eh, 00h, 00h, 00h, 00h,
                             0FFh
0D32 01017E02                
0D36 01017E00                
0D3A 000000FF                
0D3E 80808080        432             db       80h, 80h, 80h, 80h, 80h, 80h, 80h, 80h, 80h, 80h, 80h, 80h, 80h, 80h, 80h,
                              80h
A51 MACRO ASSEMBLER  12864_                                                               03/29/2005 13:34:16 PAGE    19

0D42 80808080                
0D46 80808080                
0D4A 80808080                
0D4E 80808080        433             db       80h, 80h, 80h, 80h, 80h, 80h, 80h, 80h, 80h, 80h, 80h, 80h, 80h, 80h, 80h,
                              80h
0D52 80808080                
0D56 80808080                
0D5A 80808080                
0D5E 80808080        434             db       80h, 80h, 80h, 80h, 80h, 80h, 80h, 80h, 80h, 80h, 80h, 80h, 80h, 80h, 80h,
                              80h
0D62 80808080                
0D66 80808080                
0D6A 80808080                
0D6E 80808080        435             db       80h, 80h, 80h, 80h, 80h, 80h, 80h, 80h, 80h, 80h, 80h, 80h, 80h, 80h, 80h,
                             0FFh
0D72 80808080                
0D76 80808080                
0D7A 808080FF                
                     436     
                     437     
0D7E                 438     ST7920:      
                     439      ;*********************************************
                     440      ;Controller:ST7920  
                     441      ;MCU:AT89C52 ,晶体频率：6.0MHz
                     442      ;LCM:128*64
                     443      ;LCM型号:FYD12864-0402
                     444      ;LCM 接口:1:GND 2:VCC 3:V0 4.RS 5:RW 6:E 7--14:DB0-DB7  15:PSB 16:NC 17:RST 18:Vout 
                     445     
                     446             
0D7E                 447     DISP:   ;RS      EQU   P1.3
                     448             ;RW      EQU   P1.4
                     449             ;E       EQU   P1.5
                     450             ;PSB     EQU   P1.6
                     451             ;RST     EQU   P2.7
                     452             ;COM     EQU   20H
                     453             ;DAT     EQU   21H 
                     454     ;******************************以上是接口定义
0D7E 758160          455             MOV     SP,#60H
0D81 75A881          456             MOV     IE,#81H            ;中断允许
0D84 75B801          457             MOV     IP,#01H            ;优先中断
0D87 758800          458             MOV     TCON,#00H          ;电平中断
                     459             
0D8A C296            460             CLR     P1.6 
0D8C 120EE6          461             LCALL   DELAY 
0D8F D296            462             SETB    P1.6                ;将PSB置1，通信方式为8位数据并口
0D91 120EE6          463             LCALL   DELAY
                     464                     
0D94 752030          465             MOV     COM,#30H           ;功能设置---8BIT控制界面，基本指令集
0D97 D1A8            466             ACALL   WRI                ;调用写指令子程序     
0D99 120EE6          467             LCALL   DELAY              ;延迟39uS
                     468     
0D9C 75200C          469             MOV     COM,#0CH           ;显示打开，光标关，反白显示关 
0D9F D1A8            470             ACALL   WRI                ;调用写指令子程序
0DA1 120EE6          471             LCALL   DELAY              ;延迟39uS
                     472     
0DA4 752001          473             MOV     COM,#01H           ;清除屏幕显示，将DDRAM的地址计数器归零
0DA7 D1A8            474             ACALL   WRI                ;调用写指令子程序
0DA9 120EE6          475             LCALL   DELAY              ;延迟39uS 
                     476     
0DAC 752006          477             MOV     COM,#06H           ;DDRAM的地址计数器（AC）加1
0DAF D1A8            478             ACALL   WRI                ;调用写指令子程序
0DB1 120EE6          479             LCALL   DELAY              ;延迟39uS 
                     480     ;**********************************以上是模块初始化        
                     481     
0DB4 900F23          482     WCGRAM: MOV     DPTR,#DAB5   ;自编字符入口地址
0DB7 752040          483             MOV     COM,#40H     ;CG RAM 地址设置为000000
A51 MACRO ASSEMBLER  12864_                                                               03/29/2005 13:34:16 PAGE    20

0DBA D1A8            484             ACALL   WRI          ;----------------------写指令子程序 
0DBC 7900            485             MOV     R1,#00H
0DBE E9              486     WCG1:   MOV     A,R1
0DBF 93              487             MOVC    A,@A+DPTR
0DC0 F521            488             MOV     DAT,A
0DC2 D1C6            489             ACALL   WRD          ;-----------------------写数据子程序
0DC4 09              490             INC     R1
0DC5 B980F6          491             CJNE    R1,#128,WCG1  ;共写入128KB数据        
                     492     
                     493     ;********************************以上是向CGRAM中写入4组自遍汉字字符
0DC8                 494     DISPLAY1:
0DC8 7940            495             MOV     R1,#64        ;DDRAM地址记数器设为最大值
0DCA 752080          496             MOV     COM,#80H      ;DD RAM 地址-----0000000
0DCD D1A8            497             ACALL   WRI
0DCF 752100          498     DISP1:  MOV     DAT,#00H        
0DD2 D1C6            499             ACALL   WRD           ;写入第一字节数据
0DD4 752100          500             MOV     DAT,#00H 
0DD7 D1C6            501             ACALL   WRD           ;写入第二字节数据
0DD9 D9F4            502             DJNZ    R1,DISP1     
0DDB 120EEF          503             LCALL   DELAY1        ;1S延时子程序
                     504     ;*********************************以上是显示第一个自编字型（横线1） 
0DDE                 505     DISPLAY2:
0DDE 7940            506             MOV     R1,#64        ;DDRAM地址记数器设为最大值
0DE0 752080          507             MOV     COM,#80H      ;DD RAM 地址-----0000000
0DE3 D1A8            508             ACALL   WRI
0DE5 752100          509     DISP2:  MOV     DAT,#00H        
0DE8 D1C6            510             ACALL   WRD           ;写入第一字节数据
0DEA 752102          511             MOV     DAT,#02H 
0DED D1C6            512             ACALL   WRD           ;写入第二字节数据    
0DEF D9F4            513             DJNZ    R1,DISP2        
0DF1 120EEF          514             LCALL   DELAY1        ;1S延时子程序
                     515     ;*********************************以上是显示第二个自编字型（横线2）
0DF4                 516     DISPLAY3:
0DF4 7940            517             MOV     R1,#64        ;DDRAM地址记数器设为最大值
0DF6 752080          518             MOV     COM,#80H      ;DD RAM 地址-----0000000
0DF9 D1A8            519             ACALL   WRI
0DFB 752100          520     DISP3:  MOV     DAT,#00H        
0DFE D1C6            521             ACALL   WRD           ;写入第一字节数据
0E00 752104          522             MOV     DAT,#04H 
0E03 D1C6            523             ACALL   WRD           ;写入第二字节数据  
0E05 D9F4            524             DJNZ    R1,DISP3        
0E07 120EEF          525             LCALL   DELAY1        ;1S延时子程序
                     526     ;*********************************以上是显示第三个自编字型（竖线1）
0E0A                 527     DISPLAY4:
0E0A 7940            528             MOV     R1,#64        ;DDRAM地址记数器设为最大值
0E0C 752080          529             MOV     COM,#80H      ;DD RAM 地址-----0000000
0E0F D1A8            530             ACALL   WRI
0E11 752100          531     DISP4:  MOV     DAT,#00H        
0E14 D1C6            532             ACALL   WRD           ;写入第一字节数据
0E16 752106          533             MOV     DAT,#06H 
0E19 D1C6            534             ACALL   WRD           ;写入第二字节数据      
0E1B D9F4            535             DJNZ    R1,DISP4     
0E1D 120EEF          536             LCALL   DELAY1        ;1S延时子程序
                     537     ;*********************************以上是显示第四个自编字型（竖线2）  
0E20                 538     DISPLAY5A:
0E20 7A40            539             MOV     R2,#64        ;DDRAM地址记数器设为最大值
0E22 7910            540             MOV     R1,#10H
0E24 752080          541             MOV     COM,#80H      ;DD RAM 地址-----0000000
0E27 D1A8            542             ACALL   WRI
0E29 8921            543     DISP5A: MOV     DAT,R1 
0E2B D1C6            544             ACALL   WRD           ;写入第二字节数据 
0E2D 09              545             INC     R1     
0E2E DAF9            546             DJNZ    R2,DISP5A     
0E30 120EEF          547             LCALL   DELAY1        ;1S延时子程序
                     548     ;*************************************以上是写入半角字符  
0E33                 549     DISPLAY5:
A51 MACRO ASSEMBLER  12864_                                                               03/29/2005 13:34:16 PAGE    21

0E33 7A40            550             MOV     R2,#64        ;DDRAM地址记数器设为最大值
0E35 79DE            551             MOV     R1,#0DEH
0E37 752080          552             MOV     COM,#80H      ;DD RAM 地址-----0000000
0E3A D1A8            553             ACALL   WRI
0E3C 7521B4          554     DISP5:  MOV     DAT,#0B4H        
0E3F D1C6            555             ACALL   WRD           ;写入第一字节数据
0E41 8921            556             MOV     DAT,R1 
0E43 D1C6            557             ACALL   WRD           ;写入第二字节数据 
0E45 09              558             INC     R1     
0E46 DAF4            559             DJNZ    R2,DISP5     
0E48 120EEF          560             LCALL   DELAY1        ;1S延时子程序
                     561     ;**********************************以上是从字库中“崔”字处开始显示
0E4B 752001          562             MOV     COM,#01H           ;清屏
0E4E D1A8            563             ACALL   WRI                ;调用写指令子程序     
0E50 120EE6          564             LCALL   DELAY
                     565             
0E53 752032          566             MOV     COM,#32H           ;功能设置---8BIT控制界面，绘图显示ON
0E56 D1A8            567             ACALL   WRI                ;调用写指令子程序     
0E58 120EE6          568             LCALL   DELAY              ;延迟39uS 
                     569            
0E5B 752036          570             MOV     COM,#36H           ;功能设置---8BIT控制界面，扩充指令集
0E5E D1A8            571             ACALL   WRI                ;调用写指令子程序     
0E60 120EE6          572             LCALL   DELAY              ;延迟39uS
                     573     
0E63                 574     DISPLAY6:
0E63 900FA3          575             MOV     DPTR,#DAB6      ;图形数据入口地址
0E66 7A20            576             MOV     R2,#32          ;32行,(双屏结构中上半屏)
0E68 7B80            577             MOV     R3,#80H         ;Y地址寄存器
0E6A 8B20            578     DISP6:  MOV     COM,R3          ;设置绘图区的Y地址坐标
0E6C 0B              579             INC     R3              ;Y地址加1
0E6D 120EA8          580             LCALL   WRI
0E70 752080          581             MOV     COM,#80H        ;设置绘图区的X地址坐标
0E73 120EA8          582             LCALL   WRI       
0E76 7910            583             MOV     R1,#16          ;16*8列
0E78 E4              584     DISP7:  CLR     A
0E79 93              585             MOVC    A,@A+DPTR
0E7A F521            586             MOV     DAT,A                                
0E7C 120EC6          587             LCALL   WRD
0E7F A3              588             INC     DPTR
0E80 D9F6            589             DJNZ    R1,DISP7
0E82 DAE6            590             DJNZ    R2,DISP6        ;写满全屏的16*8字节X64
                     591             
0E84 7A20            592             MOV     R2,#32          ;32行,(双屏结构的下半屏)
0E86 7B80            593             MOV     R3,#80H         ;Y地址寄存器
0E88 8B20            594     DISP8:  MOV     COM,R3          ;设置绘图区的Y地址坐标
0E8A 0B              595             INC     R3              ;Y地址加1
0E8B 120EA8          596             LCALL   WRI
0E8E 752088          597             MOV     COM,#88H        ;设置绘图区的X地址坐标
0E91 120EA8          598             LCALL   WRI       
0E94 7910            599             MOV     R1,#16          ;16*8列
0E96 E4              600     DISP9:  CLR     A
0E97 93              601             MOVC    A,@A+DPTR
0E98 F521            602             MOV     DAT,A                                
0E9A 120EC6          603             LCALL   WRD
0E9D A3              604             INC     DPTR
0E9E D9F6            605             DJNZ    R1,DISP9
0EA0 DAE6            606             DJNZ    R2,DISP8        ;写满全屏的16*8字节X64
0EA2 120EEF          607             LCALL   DELAY1          ;1S延时子程序        
0EA5 020D7E          608             LJMP    DISP            ;从开始处循环显示
                     609             
                     610     ;*******************************************以上是写入一幅图画
0EA8 C0E0            611     WRI:    PUSH    ACC
0EAA C2A0            612             CLR     RS                 
0EAC D2A1            613             SETB    RW                
0EAE 7580FF          614     WRI1:   MOV     P0,#0FFH
0EB1 D2A2            615             SETB    E              
A51 MACRO ASSEMBLER  12864_                                                               03/29/2005 13:34:16 PAGE    22

0EB3 E580            616             MOV     A,P0            
0EB5 C2A2            617             CLR     E              
0EB7 20E7F4          618             JB      ACC.7,WRI1
0EBA C2A1            619             CLR     RW 
0EBC 852080          620             MOV     P0,COM
0EBF D2A2            621             SETB    E
0EC1 C2A2            622             CLR     E
0EC3 D0E0            623             POP     ACC
0EC5 22              624             RET
                     625     ;******************************************以上是写指令子程序 
0EC6 C0E0            626     WRD:    PUSH    ACC
0EC8 C2A0            627             CLR     RS        
0ECA D2A1            628             SETB    RW        
0ECC 7580FF          629     WRD1:   MOV     P0,#0FFH
0ECF D2A2            630             SETB    E
0ED1 E580            631             MOV     A,P0
0ED3 C2A2            632             CLR     E
0ED5 20E7F4          633             JB      ACC.7,WRD1
0ED8 D2A0            634             SETB    RS            
0EDA C2A1            635             CLR     RW            
0EDC 852180          636             MOV     P0,DAT
0EDF D2A2            637             SETB    E             
0EE1 C2A2            638             CLR     E             
0EE3 D0E0            639             POP     ACC
0EE5 22              640             RET
                     641     ;******************************************以上是写数据子程序 
0EE6 7FFF            642     DELAY:  MOV     R7,#0FFH   ;06D
0EE8 7E0F            643     DELAY4: MOV     R6,#00FH   ;07D
0EEA DEFE            644     LOOP2:  DJNZ    R6,LOOP2
0EEC DFFA            645             DJNZ    R7,DELAY4
0EEE 22              646             RET
0EEF 7C06            647     DELAY1: MOV     R4,#06H
0EF1 7FFF            648     DELAY11:MOV     R7,#0FFH   ;06D
0EF3 7EFF            649     DELAY41:MOV     R6,#0FFH   ;07D
0EF5 DEFE            650             DJNZ    R6,$
0EF7 DFFA            651             DJNZ    R7,DELAY41
0EF9 DCF6            652             DJNZ    R4,DELAY11
0EFB 22              653             RET
                     654     
                     655     ;******************************************以上是延时子程序
0EFC 7DFF            656     XX:     MOV     R5,#0FFH  
0EFE 7EFF            657     XX1:    MOV     R6,#0FFH  
0F00 DEFE            658     XX2:    DJNZ    R6,XX2
0F02 DDFA            659             DJNZ    R5,XX1
0F04 22              660             RET
                     661     ;******************************************以上是延时子程序
0F05 C005            662     L0006:  PUSH    05H
0F07 C006            663             PUSH    06H
0F09 C007            664             PUSH    07H
0F0B 120EFC          665             LCALL   XX             ;****************防抖动延时
0F0E 30B2FD          666     L000F:  JNB     INT0,$         ;**************等待按键松开
0F11 D2B2            667             SETB    INT0
0F13 20B2FD          668     L0014:  JB      INT0,$         ;**********等待按键再次按下
0F16 120EFC          669             LCALL   XX
0F19 30B2FD          670     L001A:  JNB     INT0,$         ;**********等待按键再次按下
0F1C D007            671             POP     07H
0F1E D006            672             POP     06H
0F20 D005            673             POP     05H
0F22 32              674             RETI    
                     675     ;******************************************中断子程序
                     676     
0F23                 677     DAB5:
0F23 FFFF0000        678     DB  0FFH,0FFH,00H,00H,0FFH,0FFH,00H,00H,0FFH,0FFH,00H,00H,0FFH,0FFH,00H,00H
0F27 FFFF0000                
0F2B FFFF0000                
0F2F FFFF0000                
A51 MACRO ASSEMBLER  12864_                                                               03/29/2005 13:34:16 PAGE    23

0F33 FFFF0000        679     DB  0FFH,0FFH,00H,00H,0FFH,0FFH,00H,00H,0FFH,0FFH,00H,00H,0FFH,0FFH,00H,00H
0F37 FFFF0000                
0F3B FFFF0000                
0F3F FFFF0000                
                     680     
0F43 0000FFFF        681     DB  00H,00H,0FFH,0FFH,00H,00H,0FFH,0FFH,00H,00H,0FFH,0FFH,00H,00H,0FFH,0FFH
0F47 0000FFFF                
0F4B 0000FFFF                
0F4F 0000FFFF                
0F53 0000FFFF        682     DB  00H,00H,0FFH,0FFH,00H,00H,0FFH,0FFH,00H,00H,0FFH,0FFH,00H,00H,0FFH,0FFH
0F57 0000FFFF                
0F5B 0000FFFF                
0F5F 0000FFFF                
                     683     
0F63 AAAAAAAA        684     DB  0AAH,0AAH,0AAH,0AAH,0AAH,0AAH,0AAH,0AAH,0AAH,0AAH,0AAH,0AAH,0AAH,0AAH,0AAH,0AAH
0F67 AAAAAAAA                
0F6B AAAAAAAA                
0F6F AAAAAAAA                
0F73 AAAAAAAA        685     DB  0AAH,0AAH,0AAH,0AAH,0AAH,0AAH,0AAH,0AAH,0AAH,0AAH,0AAH,0AAH,0AAH,0AAH,0AAH,0AAH
0F77 AAAAAAAA                
0F7B AAAAAAAA                
0F7F AAAAAAAA                
                     686     
0F83 55555555        687     DB  55H,55H,55H,55H,55H,55H,55H,55H,55H,55H,55H,55H,55H,55H,55H,55H
0F87 55555555                
0F8B 55555555                
0F8F 55555555                
0F93 55555555        688     DB  55H,55H,55H,55H,55H,55H,55H,55H,55H,55H,55H,55H,55H,55H,55H,55H
0F97 55555555                
0F9B 55555555                
0F9F 55555555                
0FA3                 689     DAB6:
                     690     
0FA3 FFFFFFFF        691     DB  0FFH,0FFH,0FFH,0FFH,0FFH,0FFH,0FFH,0FFH,0FFH,0FFH,0FFH,0FFH,0FFH,0FFH,0FFH,0FFH
0FA7 FFFFFFFF                
0FAB FFFFFFFF                
0FAF FFFFFFFF                
0FB3 80000000        692     DB  080H,000H,000H,000H,000H,000H,000H,000H,000H,000H,000H,000H,000H,000H,000H,001H
0FB7 00000000                
0FBB 00000000                
0FBF 00000001                
0FC3 80000000        693     DB  080H,000H,000H,000H,000H,000H,000H,000H,000H,000H,000H,000H,000H,000H,000H,001H
0FC7 00000000                
0FCB 00000000                
0FCF 00000001                
0FD3 80000000        694     DB  080H,000H,000H,000H,000H,000H,000H,000H,000H,000H,000H,000H,000H,000H,000H,001H
0FD7 00000000                
0FDB 00000000                
0FDF 00000001                
0FE3 80000000        695     DB  080H,000H,000H,000H,000H,000H,000H,000H,000H,000H,000H,000H,000H,000H,000H,001H
0FE7 00000000                
0FEB 00000000                
0FEF 00000001                
0FF3 80000000        696     DB  080H,000H,000H,000H,000H,000H,000H,000H,000H,000H,000H,000H,000H,000H,000H,001H
0FF7 00000000                
0FFB 00000000                
0FFF 00000001                
1003 80000000        697     DB  080H,000H,000H,000H,000H,000H,000H,000H,000H,000H,000H,03FH,0FFH,0F0H,000H,001H
1007 00000000                
100B 0000003F                
100F FFF00001                
1013 80000000        698     DB  080H,000H,000H,000H,000H,000H,000H,000H,000H,000H,000H,040H,000H,018H,000H,001H
1017 00000000                
101B 00000040                
101F 00180001                
1023 80000000        699     DB  080H,000H,000H,000H,000H,000H,000H,000H,000H,000H,000H,0BFH,0FFH,0DCH,000H,001H
A51 MACRO ASSEMBLER  12864_                                                               03/29/2005 13:34:16 PAGE    24

1027 00000000                
102B 000000BF                
102F FFDC0001                
1033 80001FFF        700     DB  080H,000H,01FH,0FFH,0FFH,000H,000H,000H,000H,000H,000H,0BFH,0FFH,0BCH,000H,001H
1037 FF000000                
103B 000000BF                
103F FFBC0001                
1043 80003000        701     DB  080H,000H,030H,000H,001H,080H,000H,000H,000H,000H,001H,07FH,0FFH,0B8H,000H,001H
1047 01800000                
104B 0000017F                
104F FFB80001                
1053 80003000        702     DB  080H,000H,030H,000H,000H,080H,000H,000H,000H,000H,001H,07FH,0FFH,078H,000H,001H
1057 00800000                
105B 0000017F                
105F FF780001                
1063 800019FF        703     DB  080H,000H,019H,0FFH,0FEH,0C0H,000H,000H,000H,000H,002H,0FFH,0FFH,070H,000H,001H
1067 FEC00000                
106B 000002FF                
106F FF700001                
1073 80001800        704     DB  080H,000H,018H,000H,000H,040H,000H,000H,000H,000H,002H,0FFH,0FEH,0F0H,000H,001H
1077 00400000                
107B 000002FF                
107F FEF00001                
1083 80000C01        705     DB  080H,000H,00CH,001H,0FFH,060H,000H,000H,000H,000H,005H,0FFH,0FEH,0E0H,000H,001H
1087 FF600000                
108B 000005FF                
108F FEE00001                
1093 80000C7F        706     DB  080H,000H,00CH,07FH,0D0H,020H,000H,000H,000H,000H,005H,0FFH,0FDH,0E0H,000H,001H
1097 D0200000                
109B 000005FF                
109F FDE00001                
10A3 80000600        707     DB  080H,000H,006H,000H,00FH,0B0H,000H,000H,000H,000H,00BH,0FFH,0FDH,0C0H,000H,001H
10A7 0FB00000                
10AB 00000BFF                
10AF FDC00001                
10B3 80000603        708     DB  080H,000H,006H,003H,0FCH,010H,000H,000H,000H,000H,00BH,0FFH,0FBH,0C0H,000H,001H
10B7 FC100000                
10BB 00000BFF                
10BF FBC00001                
10C3 8000031F        709     DB  080H,000H,003H,01FH,000H,018H,000H,000H,000H,000H,017H,0FFH,0FBH,080H,000H,001H
10C7 00180000                
10CB 000017FF                
10CF FB800001                
10D3 80000300        710     DB  080H,000H,003H,000H,000H,008H,000H,000H,000H,000H,017H,0FFH,0F7H,080H,000H,001H
10D7 00080000                
10DB 000017FF                
10DF F7800001                
10E3 80000180        711     DB  080H,000H,001H,080H,000H,00CH,000H,000H,000H,000H,017H,0FFH,0F7H,000H,000H,001H
10E7 000C0000                
10EB 000017FF                
10EF F7000001                
10F3 80000180        712     DB  080H,000H,001H,080H,000H,004H,000H,000H,000H,000H,009H,0FFH,0EFH,000H,000H,001H
10F7 00040000                
10FB 000009FF                
10FF EF000001                
1103 800000C0        713     DB  080H,000H,000H,0C0H,000H,0F6H,000H,000H,000H,000H,006H,07FH,0EEH,000H,000H,001H
1107 00F60000                
110B 0000067F                
110F EE000001                
1113 800000C0        714     DB  080H,000H,000H,0C0H,003H,0C2H,000H,000H,000H,000H,001H,09FH,0DEH,000H,000H,001H
1117 03C20000                
111B 0000019F                
111F DE000001                
1123 80000060        715     DB  080H,000H,000H,060H,000H,03BH,000H,000H,000H,000H,000H,067H,0DFH,000H,000H,001H
1127 003B0000                
112B 00000067                
A51 MACRO ASSEMBLER  12864_                                                               03/29/2005 13:34:16 PAGE    25

112F DF000001                
1133 80000060        716     DB  080H,000H,000H,060H,000H,0E3H,000H,000H,000H,000H,000H,019H,0BFH,000H,000H,001H
1137 00E30000                
113B 00000019                
113F BF000001                
1143 80000030        717     DB  080H,000H,000H,030H,003H,08EH,000H,000H,000H,000H,000H,006H,03FH,000H,000H,001H
1147 038E0000                
114B 00000006                
114F 3F000001                
1153 80000030        718     DB  080H,000H,000H,030H,006H,03CH,000H,000H,000H,000H,000H,001H,0FFH,000H,000H,001H
1157 063C0000                
115B 00000001                
115F FF000001                
1163 80000018        719     DB  080H,000H,000H,018H,000H,0F0H,000H,000H,000H,000H,000H,000H,0FFH,000H,000H,001H
1167 00F00000                
116B 00000000                
116F FF000001                
1173 80000018        720     DB  080H,000H,000H,018H,003H,0C0H,000H,000H,000H,000H,000H,00FH,07FH,080H,000H,001H
1177 03C00000                
117B 0000000F                
117F 7F800001                
1183 8000000C        721     DB  080H,000H,000H,00CH,00FH,000H,000H,000H,000H,000H,000H,030H,01FH,0C0H,000H,001H
1187 0F000000                
118B 00000030                
118F 1FC00001                
1193 8000000C        722     DB  080H,000H,000H,00CH,03CH,000H,000H,000H,000H,000H,000H,040H,007H,0E0H,000H,001H
1197 3C000000                
119B 00000040                
119F 07E00001                
11A3 80000006        723     DB  080H,000H,000H,006H,0F0H,000H,000H,000H,000H,000H,000H,0E0H,01FH,0E0H,000H,001H
11A7 F0000000                
11AB 000000E0                
11AF 1FE00001                
11B3 80000007        724     DB  080H,000H,000H,007H,0C0H,000H,000H,000H,000H,000H,000H,0F8H,03FH,0C0H,000H,001H
11B7 C0000000                
11BB 000000F8                
11BF 3FC00001                
11C3 80000003        725     DB  080H,000H,000H,003H,000H,000H,000H,000H,000H,000H,000H,07EH,0FFH,000H,000H,001H
11C7 00000000                
11CB 0000007E                
11CF FF000001                
11D3 80000000        726     DB  080H,000H,000H,000H,000H,000H,000H,000H,000H,000H,000H,01FH,0FCH,000H,000H,001H
11D7 00000000                
11DB 0000001F                
11DF FC000001                
11E3 80000000        727     DB  080H,000H,000H,000H,000H,000H,000H,000H,000H,000H,000H,007H,0F0H,000H,000H,001H
11E7 00000000                
11EB 00000007                
11EF F0000001                
11F3 80000000        728     DB  080H,000H,000H,000H,000H,000H,000H,000H,000H,000H,000H,001H,0C0H,000H,000H,001H
11F7 00000000                
11FB 00000001                
11FF C0000001                
1203 80000000        729     DB  080H,000H,000H,000H,000H,000H,000H,000H,000H,000H,000H,000H,000H,000H,000H,001H
1207 00000000                
120B 00000000                
120F 00000001                
1213 80000000        730     DB  080H,000H,000H,000H,000H,000H,000H,000H,000H,000H,000H,000H,000H,000H,000H,001H
1217 00000000                
121B 00000000                
121F 00000001                
1223 80000000        731     DB  080H,000H,000H,000H,000H,000H,000H,000H,000H,000H,000H,000H,000H,000H,000H,001H
1227 00000000                
122B 00000000                
122F 00000001                
1233 80000000        732     DB  080H,000H,000H,000H,000H,000H,000H,000H,000H,000H,000H,000H,000H,000H,000H,001H
A51 MACRO ASSEMBLER  12864_                                                               03/29/2005 13:34:16 PAGE    26

1237 00000000                
123B 00000000                
123F 00000001                
1243 80054088        733     DB  080H,005H,040H,088H,004H,001H,008H,000H,000H,00AH,081H,010H,004H,000H,020H,001H
1247 04010800                
124B 000A8110                
124F 04002001                
1253 80792108        734     DB  080H,079H,021H,008H,002H,021H,049H,000H,000H,0F2H,042H,010H,004H,047H,010H,001H
1257 02214900                
125B 00F24210                
125F 04471001                
1263 800907DF        735     DB  080H,009H,007H,0DFH,07FH,0F7H,0AAH,000H,000H,012H,00FH,0BEH,07FH,0E5H,0FEH,001H
1267 7FF7AA00                
126B 00120FBE                
126F 7FE5FE01                
1273 807FF451        736     DB  080H,07FH,0F4H,051H,008H,081H,02CH,000H,000H,0FFH,0E8H,0A2H,044H,047H,000H,001H
1277 08812C00                
127B 00FFE8A2                
127F 44470001                
1283 80090461        737     DB  080H,009H,004H,061H,008H,081H,07FH,000H,000H,012H,008H,0C2H,07FH,0C5H,04AH,001H
1287 08817F00                
128B 001208C2                
128F 7FC54A01                
1293 800B2451        738     DB  080H,00BH,024H,051H,008H,083H,081H,000H,000H,016H,048H,0A2H,044H,045H,06AH,001H
1297 08838100                
129B 001648A2                
129F 44456A01                
12A3 801D47C9        739     DB  080H,01DH,047H,0C9H,005H,005H,001H,000H,000H,03AH,08FH,092H,044H,047H,052H,001H
12A7 05050100                
12AB 003A8F92                
12AF 44475201                
12B3 80688449        740     DB  080H,068H,084H,049H,005H,005H,07FH,000H,000H,0D1H,008H,092H,07FH,0C5H,06AH,001H
12B7 05057F00                
12BB 00D10892                
12BF 7FC56A01                
12C3 80099441        741     DB  080H,009H,094H,041H,002H,001H,001H,000H,000H,013H,028H,082H,044H,005H,04AH,001H
12C7 02010100                
12CB 00132882                
12CF 44054A01                
12D3 800E57C1        742     DB  080H,00EH,057H,0C1H,00DH,081H,001H,000H,000H,01CH,0AFH,082H,004H,029H,042H,001H
12D7 0D810100                
12DB 001CAF82                
12DF 04294201                
12E3 8038344E        743     DB  080H,038H,034H,04EH,070H,071H,07FH,000H,000H,070H,068H,09CH,003H,0EBH,07EH,001H
12E7 70717F00                
12EB 0070689C                
12EF 03EB7E01                
12F3 80000000        744     DB  080H,000H,000H,000H,000H,000H,000H,000H,000H,000H,000H,000H,000H,000H,000H,001H
12F7 00000000                
12FB 00000000                
12FF 00000001                
1303 80000000        745     DB  080H,000H,000H,000H,000H,000H,000H,000H,000H,000H,000H,000H,000H,000H,000H,001H
1307 00000000                
130B 00000000                
130F 00000001                
1313 80000000        746     DB  080H,000H,000H,000H,000H,000H,000H,000H,000H,000H,000H,000H,000H,000H,000H,001H
1317 00000000                
131B 00000000                
131F 00000001                
1323 80000000        747     DB  080H,000H,000H,000H,000H,000H,000H,000H,000H,000H,000H,000H,000H,000H,000H,001H
1327 00000000                
132B 00000000                
132F 00000001                
1333 80000000        748     DB  080H,000H,000H,000H,000H,000H,000H,000H,000H,000H,000H,000H,000H,000H,000H,001H
1337 00000000                
133B 00000000                
A51 MACRO ASSEMBLER  12864_                                                               03/29/2005 13:34:16 PAGE    27

133F 00000001                
1343 80000000        749     DB  080H,000H,000H,000H,000H,000H,000H,000H,000H,000H,000H,000H,000H,000H,000H,001H
1347 00000000                
134B 00000000                
134F 00000001                
1353 80000000        750     DB  080H,000H,000H,000H,000H,000H,000H,000H,000H,000H,000H,000H,000H,000H,000H,001H
1357 00000000                
135B 00000000                
135F 00000001                
1363 80000000        751     DB  080H,000H,000H,000H,000H,000H,000H,000H,000H,000H,000H,000H,000H,000H,000H,001H
1367 00000000                
136B 00000000                
136F 00000001                
1373 80000000        752     DB  080H,000H,000H,000H,000H,000H,000H,000H,000H,000H,000H,000H,000H,000H,000H,001H
1377 00000000                
137B 00000000                
137F 00000001                
1383 80000000        753     DB  080H,000H,000H,000H,000H,000H,000H,000H,000H,000H,000H,000H,000H,000H,000H,001H
1387 00000000                
138B 00000000                
138F 00000001                
1393 FFFFFFFF        754     DB  0FFH,0FFH,0FFH,0FFH,0FFH,0FFH,0FFH,0FFH,0FFH,0FFH,0FFH,0FFH,0FFH,0FFH,0FFH,0FFH
1397 FFFFFFFF                
139B FFFFFFFF                
139F FFFFFFFF                
                     755     ;***********************************************************************************
                     756     
                     757       END
                                     
                             
A51 MACRO ASSEMBLER  12864_                                                               03/29/2005 13:34:16 PAGE    28

SYMBOL TABLE LISTING
------ ----- -------


N A M E             T Y P E  V A L U E   ATTRIBUTES

ABC. . . . . . . .  C ADDR   00A9H   A   
ACC. . . . . . . .  D ADDR   00E0H   A   
B. . . . . . . . .  D ADDR   00F0H   A   
BA . . . . . . . .  C ADDR   00C8H   A   
CA . . . . . . . .  C ADDR   00EDH   A   
COM. . . . . . . .  N NUMB   0020H   A   
CS1. . . . . . . .  B ADDR   00A0H.3 A   
CS2. . . . . . . .  B ADDR   00A0H.4 A   
DAB5 . . . . . . .  C ADDR   0F23H   A   
DAB6 . . . . . . .  C ADDR   0FA3H   A   
DAT. . . . . . . .  N NUMB   0021H   A   
DELAY. . . . . . .  C ADDR   0EE6H   A   
DELAY1 . . . . . .  C ADDR   0EEFH   A   
DELAY11. . . . . .  C ADDR   0EF1H   A   
DELAY4 . . . . . .  C ADDR   0EE8H   A   
DELAY41. . . . . .  C ADDR   0EF3H   A   
DISP . . . . . . .  C ADDR   0D7EH   A   
DISP1. . . . . . .  C ADDR   0DCFH   A   
DISP2. . . . . . .  C ADDR   0DE5H   A   
DISP3. . . . . . .  C ADDR   0DFBH   A   
DISP4. . . . . . .  C ADDR   0E11H   A   
DISP5. . . . . . .  C ADDR   0E3CH   A   
DISP5A . . . . . .  C ADDR   0E29H   A   
DISP6. . . . . . .  C ADDR   0E6AH   A   
DISP7. . . . . . .  C ADDR   0E78H   A   
DISP8. . . . . . .  C ADDR   0E88H   A   
DISP9. . . . . . .  C ADDR   0E96H   A   
DISPLAY1 . . . . .  C ADDR   0DC8H   A   
DISPLAY2 . . . . .  C ADDR   0DDEH   A   
DISPLAY3 . . . . .  C ADDR   0DF4H   A   
DISPLAY4 . . . . .  C ADDR   0E0AH   A   
DISPLAY5 . . . . .  C ADDR   0E33H   A   
DISPLAY5A. . . . .  C ADDR   0E20H   A   
DISPLAY6 . . . . .  C ADDR   0E63H   A   
E. . . . . . . . .  B ADDR   00A0H.2 A   
IE . . . . . . . .  D ADDR   00A8H   A   
INT0 . . . . . . .  B ADDR   00B0H.2 A   
IP . . . . . . . .  D ADDR   00B8H   A   
L0006. . . . . . .  C ADDR   0F05H   A   
L000F. . . . . . .  C ADDR   0F0EH   A   
L0014. . . . . . .  C ADDR   0F13H   A   
L001A. . . . . . .  C ADDR   0F19H   A   
L0100. . . . . . .  C ADDR   000EH   A   
L0242. . . . . . .  C ADDR   0173H   A   
L0244. . . . . . .  C ADDR   0175H   A   
L0246. . . . . . .  C ADDR   0177H   A   
LEFT . . . . . . .  C ADDR   0088H   A   
LOOP2. . . . . . .  C ADDR   0EEAH   A   
P0 . . . . . . . .  D ADDR   0080H   A   
P1 . . . . . . . .  D ADDR   0090H   A   
P2 . . . . . . . .  D ADDR   00A0H   A   
P3 . . . . . . . .  D ADDR   00B0H   A   
RIGHT. . . . . . .  C ADDR   00A7H   A   
RS . . . . . . . .  B ADDR   00A0H.0 A   
RST. . . . . . . .  B ADDR   00A0H.5 A   
RW . . . . . . . .  B ADDR   00A0H.1 A   
S0240. . . . . . .  C ADDR   0171H   A   
S027B. . . . . . .  C ADDR   0097H   A   
S027D. . . . . . .  C ADDR   00B6H   A   
S02A9. . . . . . .  C ADDR   0119H   A   
A51 MACRO ASSEMBLER  12864_                                                               03/29/2005 13:34:16 PAGE    29

S02B1. . . . . . .  C ADDR   0121H   A   
S02B9. . . . . . .  C ADDR   0131H   A   
S02C1. . . . . . .  C ADDR   0129H   A   
S02C9. . . . . . .  C ADDR   0139H   A   
S02C9A . . . . . .  C ADDR   013DH   A   
S02E0. . . . . . .  C ADDR   0154H   A   
S02E0A . . . . . .  C ADDR   0158H   A   
SP . . . . . . . .  D ADDR   0081H   A   
ST7920 . . . . . .  C ADDR   0D7EH   A   
ST7920A. . . . . .  C ADDR   000BH   A   
STR. . . . . . . .  C ADDR   0006H   A   
TAB1 . . . . . . .  C ADDR   017EH   A   
TAB2 . . . . . . .  C ADDR   037EH   A   
TAB3 . . . . . . .  C ADDR   057EH   A   
TAB4 . . . . . . .  C ADDR   077EH   A   
TAB5 . . . . . . .  C ADDR   097EH   A   
TAB6 . . . . . . .  C ADDR   0B7EH   A   
TCON . . . . . . .  D ADDR   0088H   A   
W027B. . . . . . .  C ADDR   00DBH   A   
WCG1 . . . . . . .  C ADDR   0DBEH   A   
WCGRAM . . . . . .  C ADDR   0DB4H   A   
WRD. . . . . . . .  C ADDR   0EC6H   A   
WRD1 . . . . . . .  C ADDR   0ECCH   A   
WRI. . . . . . . .  C ADDR   0EA8H   A   
WRI1 . . . . . . .  C ADDR   0EAEH   A   
X027B. . . . . . .  C ADDR   0100H   A   
XIHX . . . . . . .  C ADDR   00C6H   A   
XISX . . . . . . .  C ADDR   00EBH   A   
XX . . . . . . . .  C ADDR   0EFCH   A   
XX1. . . . . . . .  C ADDR   0EFEH   A   
XX2. . . . . . . .  C ADDR   0F00H   A   
_AB. . . . . . . .  C ADDR   008AH   A   


REGISTER BANK(S) USED: 0 


ASSEMBLY COMPLETE.  0 WARNING(S), 0 ERROR(S)
