A51 MACRO ASSEMBLER  12864_CHS                                                            03/29/2005 16:03:58 PAGE     1


MACRO ASSEMBLER A51 V7.10
OBJECT MODULE PLACED IN 12864_chs.OBJ
ASSEMBLER INVOKED BY: C:\Keil\C51\BIN\A51.EXE 12864_chs.asm SET(SMALL) DEBUG EP

LOC  OBJ            LINE     SOURCE

                       1     ;********************************************************************************
                       2     ;*  标题:  伟纳电子ME300B单片机开发系统演示程序 - 12864LCD(带汉字库）演示       *
                       3     ;*  文件:  wl016.asm                                                            *
                       4     ;*  日期:  2005-3-20                                                            *
                       5     ;*  版本:  1.0                                                                  *
                       6     ;*  作者:  gguoqing                                                             *
                       7     ;*  邮箱:  gguoqing@willar.com                                                  *
                       8     ;*  网站： http://www.willar.com                                                *
                       9     ;********************************************************************************
                      10     ;*  描述:                                                                       *
                      11     ;*         12864LCD(带汉字库）演示程序                                          *
                      12     ;*         控制器ST7920                                                         *
                      13     ;*         LCD型号：TS12864A-3（带汉字库）或兼容型号                            *
                      14     ;*         MCU:AT89S52 ,晶体频率：11.0592MHz                                    *
                      15     ;*                                                                              *
                      16     ;********************************************************************************
                      17     ;* 【版权】 Copyright(C)伟纳电子 www.willar.com  All Rights Reserved            *
                      18     ;* 【声明】 此程序仅用于学习与参考，引用请注明版权和作者信息！                  *
                      19     ;********************************************************************************
                      20        
                      21                                    
                      22     ;****************TS12864A-3 并口****************
                      23                                        
  00A0                24               RS    EQU     P2.0       
  00A1                25               RW    EQU     P2.1
  00A2                26               E     EQU     P2.2
  00A3                27               PSB   EQU     P2.3
  00A5                28               RST   EQU     P2.5
                      29     ;-----------------------------------------------
  0030                30               LCD_X  EQU    30H
  0031                31               LCD_Y  EQU    31H
  0032                32               COUNT  EQU    32H
  0033                33               COUNT1 EQU    33H
  0034                34               COUNT2 EQU    34H
  0035                35               COUNT3 EQU    35H
                      36     ;-----------------------------------------------
  0036                37            LCD_DATA  EQU    36H
  0037                38            LCD_DATA1 EQU    37H
  0038                39            LCD_DATA2 EQU    38H
  0039                40               STORE  EQU    39H
                      41     
                      42     ;-----------------------------------------------
0000                  43                     ORG     0000H
0000 020100           44                     LJMP    MAIN
0100                  45                     ORG     0100H
                      46     ;-----------------------------------------------
0100                  47     MAIN:
0100 75815F           48                 MOV SP,#5FH
0103 C2A5             49                 CLR  RST             ;复位
0105 12032D           50                 LCALL DELAY4
0108 D2A5             51                 SETB RST
010A 00               52                 NOP
010B D2A3             53                 SETB PSB             ;通讯方式为8位数据并口
                      54     
                      55     ;********************初始化**********************
010D 7434             56     LGS0:       MOV A,#34H          ;34H--扩充指令操作
010F 1202DE           57                 LCALL SEND_I
0112 7430             58                 MOV A,#30H          ;30H--基本指令操作
A51 MACRO ASSEMBLER  12864_CHS                                                            03/29/2005 16:03:58 PAGE     2

0114 1202DE           59                 LCALL SEND_I
0117 7401             60                 MOV A,#01H          ;清除显示
0119 1202DE           61                 LCALL SEND_I
011C 7406             62                 MOV A,#06H          ;指定在资料写入或读取时，光标的移动方向
011E 1202DE           63                 LCALL SEND_I        ;DDRAM 的地址计数器(AC)加1
0121 740C             64                 MOV A,#0CH          ;开显示,关光标,不闪烁
0123 1202DE           65                 LCALL SEND_I
                      66     ;===============================================
0126                  67     TU_PLAY1:
0126 9003C3           68                 MOV  DPTR,#TU_TAB1       ;显示图形
0129 1201F9           69                 LCALL PHO_DISP
012C 12030E           70                 LCALL DELAY3
                      71                 
                      72     ;===============================================
                      73     ;显示汉字和字符
                      74     ;加入80ms的延时，使你能够看清楚显示的过程
                      75     ;根据汉字显示坐标写入 (隔行写入）
                      76     ;===============================================
012F                  77     HAN_WR1:
012F 1202B1           78                 LCALL CLEAR_P
0132 900343           79                 MOV DPTR,#TAB1      ;显示汉字和字符
0135 753240           80                 MOV COUNT,#40H      ;地址计数器设为最大值 64。
0138 7480             81                 MOV A,#80H          ;起始地址
013A 1202DE           82                 LCALL SEND_I
013D 1202C1           83                 LCALL QUSHU
0140 12030E           84                 LCALL DELAY3
0143 120288           85                 LCALL FLASH
                      86     ;=================================================
                      87     ;;显示汉字和字符
                      88     ;加入80ms的延时，使你能够看清楚显示的过程
                      89     ;根据汉字显示坐标分段写入（顺序写入）
                      90     ;=================================================
0146                  91     HAN_WR2:
0146 1202B1           92                 LCALL CLEAR_P
0149                  93     HAN_WR2A:
0149 900343           94                 MOV DPTR,#TAB1A     ;显示汉字和字符
014C 753210           95                 MOV COUNT,#10H      ;地址计数器设为16。
014F 7480             96                 MOV A,#80H          ;第一行起始地址
0151 1202DE           97                 LCALL SEND_I
0154 1202C1           98                 LCALL   QUSHU
0157                  99     HAN_WR2B:
0157 900363          100                 MOV DPTR,#TAB1B     ;显示汉字和字符
015A 753210          101                 MOV COUNT,#10H      ;地址计数器设为16。
015D 7490            102                 MOV A,#90H          ;第二行起始地址
015F 1202DE          103                 LCALL SEND_I
0162 1202C1          104                 LCALL QUSHU
0165                 105     HAN_WR2C:
0165 900353          106                 MOV DPTR,#TAB1C     ;显示汉字和字符
0168 753210          107                 MOV COUNT,#10H      ;地址计数器设为16。
016B 7488            108                 MOV A,#88H          ;第三行起始地址
016D 1202DE          109                 LCALL SEND_I
0170 1202C1          110                 LCALL QUSHU
0173                 111     HAN_WR2D:
0173 900373          112                 MOV DPTR,#TAB1D      ;显示汉字和字符
0176 753210          113                 MOV COUNT,#10H       ;地址计数器设为16。
0179 7498            114                 MOV A,#98H           ;第四行起始地址
017B 1202DE          115                 LCALL SEND_I
017E 1202C1          116                 LCALL QUSHU
0181 12030E          117                 LCALL DELAY3
0184 120288          118                 LCALL FLASH
0187 1202B1          119                 LCALL CLEAR_P
018A 8009            120                 JMP  TU_PLAY2
                     121     ;----------------------------------------------
                     122     ;TU_PLAY1:
018C 9003C3          123                 MOV  DPTR,#TU_TAB1       ;显示图形
018F 1201F9          124                 LCALL PHO_DISP
A51 MACRO ASSEMBLER  12864_CHS                                                            03/29/2005 16:03:58 PAGE     3

0192 12030E          125                 LCALL DELAY3
                     126                 ;LCALL   FLASH
                     127     ;----------------------------------------------
0195                 128     TU_PLAY2:
0195 9007C3          129                 MOV DPTR,#TU_TAB2   ;显示图形
0198 1201F9          130                 LCALL PHO_DISP
019B 12030E          131                 LCALL DELAY3
                     132                 ;LCALL   FLASH
                     133     ;----------------------------------------------
019E                 134     TU_PLAY3:
019E 900BC3          135                 MOV DPTR,#TU_TAB3   ;显示图形
01A1 1201F9          136                 LCALL PHO_DISP
01A4 12030E          137                 LCALL DELAY3
                     138                 ;LCALL   FLASH
                     139     ;-----------------------------------------------
                     140     ;显示点阵
                     141     ;-----------------------------------------------
01A7                 142     LATPLAY1:
01A7 7401            143                 MOV A,#01H         ;清屏
01A9 1202DE          144                 LCALL SEND_I
01AC 7537CC          145                 MOV LCD_DATA1,#0CCH  ;显示点阵
01AF 7538CC          146                 MOV LCD_DATA2,#0CCH
01B2 120234          147                 LCALL LAT_DISP
01B5 12030E          148                 LCALL DELAY3
01B8 1202B1          149                 LCALL CLEAR_P
                     150                 ;LJMP  TU_PLAY1
                     151     ;===============================================
                     152     ;调字库半角字符显示
                     153     ;===============================================
01BB                 154     KU_PLAY1:
01BB 1202B1          155                 LCALL  CLEAR_P
01BE 753240          156                 MOV  COUNT,#40H
01C1 7480            157                 MOV  A,#80H
01C3 1202DE          158                 LCALL SEND_I
01C6 7910            159                 MOV  R1,#10H
01C8                 160     LATPLAY11:
01C8 E9              161                 MOV  A,R1
01C9 1202CE          162                 LCALL  SEND_D
01CC 09              163                 INC  R1
01CD D532F8          164                 DJNZ  COUNT,LATPLAY11
01D0 12030E          165                 LCALL  DELAY3
01D3 1202B1          166                 LCALL  CLEAR_P
                     167                 ;LJMP  TU_PLAY1
                     168     
                     169     ;===============================================
                     170     ;调字库汉字显示
                     171     ;从 B9F3 “贵”字处开始显示
                     172     ;===============================================
01D6                 173     KU_PLAY2:
01D6 1202B1          174                 LCALL  CLEAR_P
01D9 753240          175                 MOV  COUNT,#40H
01DC 7480            176                 MOV  A,#80H
01DE 1202DE          177                 LCALL SEND_I
01E1 79F3            178                 MOV  R1,#0F3H
01E3                 179     KU_PLAY21:
01E3 74B9            180                 MOV  A,#0B9H
01E5 1202CE          181                 LCALL  SEND_D        ;写入第一字节数据（高位）
01E8 E9              182                 MOV  A,R1
01E9 1202CE          183                 LCALL  SEND_D        ;写入第二字节数据（低位）
01EC 09              184                 INC  R1
01ED D532F3          185                 DJNZ  COUNT,KU_PLAY21
01F0 12030E          186                 LCALL  DELAY3
01F3 1202B1          187                 LCALL  CLEAR_P
01F6 020126          188                 LJMP  TU_PLAY1
                     189                 ;JMP  $
                     190     ;===============================================
A51 MACRO ASSEMBLER  12864_CHS                                                            03/29/2005 16:03:58 PAGE     4

                     191     ;全屏显示图形子程序
                     192     ;===============================================
01F9                 193     PHO_DISP:
01F9 753502          194                 MOV  COUNT3,#02H
01FC 753080          195                 MOV  LCD_X,#80H
01FF                 196     PHO_DISP1:
01FF 753180          197                 MOV  LCD_Y,#80H
0202 753420          198                 MOV  COUNT2,#20H
0205                 199     PHO_DISP2:
0205 753310          200                 MOV  COUNT1,#10H
0208 120273          201                 LCALL WR_ZB
020B                 202     PHO_DISP3:
020B E4              203                 CLR A
020C 93              204                 MOVC A,@A+DPTR
020D 1202CE          205                 LCALL SEND_D
0210 A3              206                 INC DPTR
0211 D533F7          207                 DJNZ COUNT1,PHO_DISP3
0214 0531            208                 INC LCD_Y
0216 D534EC          209                 DJNZ COUNT2,PHO_DISP2
0219 753088          210                 MOV LCD_X,#88H
021C D535E0          211                 DJNZ COUNT3,PHO_DISP1
                     212     
021F 7436            213                 MOV A,#36H
0221 1202DE          214                 LCALL SEND_I
0224 7430            215                 MOV A,#30H
0226 1202DE          216                 LCALL SEND_I
0229 22              217                 RET
                     218     ;----------------------------------------------
022A                 219     CLRRAM:
022A 753700          220                 MOV LCD_DATA1,#00H          ;GDRAM写0子程序
022D 753800          221                 MOV LCD_DATA2,#00H
0230 120234          222                 LCALL LAT_DISP
0233 22              223                 RET
                     224     ;==============================================
                     225     ;显示点阵子程序
                     226     ;==============================================
0234                 227     LAT_DISP:
0234 753502          228                 MOV COUNT3,#02H
0237 753080          229                 MOV LCD_X,#80H
023A                 230     LAT_DISP1:
023A 753180          231                 MOV LCD_Y,#80H
023D C2D5            232                 CLR F0
023F 753420          233                 MOV COUNT2,#20H
0242                 234     LAT_DISP2:
0242 753310          235                 MOV COUNT1,#10H
0245 120273          236                 LCALL WR_ZB
0248                 237     LAT_DISP3:
0248 20D505          238                 JB  F0,LAT_DISP32
024B 853736          239                 MOV LCD_DATA,LCD_DATA1
024E 4153            240                 AJMP LAT_DISP31
0250                 241     LAT_DISP32:
0250 853836          242                 MOV LCD_DATA,LCD_DATA2
0253                 243     LAT_DISP31:
0253 E536            244                 MOV A,LCD_DATA
0255 1202CE          245                 LCALL SEND_D
0258 D533F8          246                 DJNZ COUNT1,LAT_DISP31
025B 0531            247                 INC LCD_Y
025D B2D5            248                 CPL F0
025F D534E0          249                 DJNZ COUNT2,LAT_DISP2
0262 753088          250                 MOV LCD_X,#88H
0265 D535D2          251                 DJNZ COUNT3,LAT_DISP1
                     252     
0268 7436            253                 MOV A,#36H
026A 1202DE          254                 LCALL SEND_I
026D 7430            255                 MOV A,#30H
026F 1202DE          256                 LCALL SEND_I
A51 MACRO ASSEMBLER  12864_CHS                                                            03/29/2005 16:03:58 PAGE     5

0272 22              257                 RET
                     258     ;---------------------------------------------
0273                 259     WR_ZB:
0273 7434            260                 MOV A,#34H
0275 1202DE          261                 LCALL SEND_I
0278 E531            262                 MOV A,LCD_Y
027A 1202DE          263                 LCALL SEND_I
027D E530            264                 MOV A,LCD_X
027F 1202DE          265                 LCALL SEND_I
0282 7430            266                 MOV A,#30H
0284 1202DE          267                 LCALL SEND_I
0287 22              268                 RET
                     269     
                     270     ;===============================================
0288                 271     FLASH:
0288 7408            272                 MOV  A,#08H       ;关闭显示
028A 1202DE          273                 LCALL SEND_I
028D 120336          274                 LCALL  DELAY5
0290 740C            275                 MOV  A,#0CH   ;开显示,关光标,不闪烁
0292 1202DE          276                 LCALL SEND_I
0295 120336          277                 LCALL  DELAY5
0298 7408            278                 MOV  A,#08H       ;关闭显示
029A 1202DE          279                 LCALL SEND_I
029D 120336          280                 LCALL  DELAY5
02A0 740C            281                 MOV  A,#0CH   ;开显示,关光标,不闪烁
02A2 1202DE          282                 LCALL SEND_I
02A5 120336          283                 LCALL  DELAY5
02A8 7408            284                 MOV  A,#08H       ;关闭显示
02AA 1202DE          285                 LCALL SEND_I
02AD 120336          286                 LCALL  DELAY5
02B0 22              287                     RET
                     288     ;==================================================
                     289     ;清屏
                     290     ;==================================================
02B1                 291     CLEAR_P:
02B1 7401            292                 MOV A,#01H           ;清屏
02B3 1202DE          293                 LCALL SEND_I
02B6 7434            294                 MOV A,#34H
02B8 1202DE          295                 LCALL SEND_I
02BB 7430            296                 MOV A,#30H
02BD 1202DE          297                 LCALL SEND_I
02C0 22              298                 RET
                     299     ;==================================================
                     300     ;查表取数据送显示
                     301     ;==================================================
02C1                 302     QUSHU:
02C1 E4              303                 CLR A
02C2 93              304                 MOVC A,@A+DPTR       ;查表取数据
02C3 1202CE          305                 LCALL SEND_D          ;送显示
02C6 A3              306                 INC DPTR
02C7 12032D          307                 LCALL DELAY4           ;延时80ms,
02CA D532F4          308                 DJNZ COUNT,QUSHU
02CD 22              309                 RET
                     310     
                     311     ;===============================================
                     312     ;写数据子程序
                     313     ;RS=1,RW=0,E=高脉冲,D0-D7=数据
                     314     ;===============================================
02CE                 315     SEND_D:
02CE 1202FF          316                 LCALL       CHK_BUSY    ;写数据子程序
02D1 D2A0            317                 SETB        RS
02D3 C2A1            318                 CLR RW
02D5 F580            319                 MOV P0,A
02D7 D2A2            320                 SETB        E
02D9 00              321                 NOP
02DA 00              322                 NOP
A51 MACRO ASSEMBLER  12864_CHS                                                            03/29/2005 16:03:58 PAGE     6

02DB C2A2            323                 CLR E
02DD 22              324                 RET
                     325     ;===============================================
                     326     ;写指令子程序
                     327     ;RS=0,RW=0,E=高脉冲,D0-D7=指令码
                     328     ;===============================================
02DE                 329     SEND_I:
02DE 1202FF          330                 LCALL CHK_BUSY
02E1 C2A0            331                 CLR RS
02E3 C2A1            332                 CLR RW
02E5 F580            333                 MOV P0,A
02E7 D2A2            334                 SETB E
02E9 00              335                 NOP
02EA 00              336                 NOP
02EB C2A2            337                 CLR E
02ED 22              338                 RET
                     339     ;================================================
                     340     ;读数据子程序
                     341     ;RS=1,RW=1,E=H,D0-D7=数据
                     342     ;================================================
02EE                 343     READ_D:
02EE 1202FF          344                LCALL CHK_BUSY    ;读数据子程序
02F1 D2A0            345                SETB RS
02F3 D2A1            346                SETB RW
02F5 D2A2            347                SETB E
02F7 00              348                NOP
02F8 E580            349                MOV  A,P0
02FA C2A2            350                CLR  E
02FC F539            351                MOV  STORE,A
02FE 22              352                RET
                     353     ;================================================
                     354     ;;测忙碌子程序
                     355     ;RS=0,RW=1,E=H,D0-D7=状态字
                     356     ;================================================
02FF                 357     CHK_BUSY:
02FF 7580FF          358                MOV  P0,#0FFH    ;测忙碌子程序
0302 C2A0            359                CLR  RS
0304 D2A1            360                SETB RW
0306 D2A2            361                SETB E
0308 2087FD          362                JB   P0.7,$
030B C2A2            363                CLR  E
030D 22              364                RET
                     365     ;================================================
                     366     ;延时子程序
                     367     ;================================================
030E                 368     DELAY3:
030E 7D16            369                MOV  R5,#16H
0310 7EFF            370     DEL31:     MOV  R6,#0FFH
0312 7FFF            371     DEL32:     MOV  R7,#0FFH
0314 DFFE            372     DEL33:     DJNZ R7,DEL33
0316 DEFA            373                DJNZ R6,DEL32
0318 DDF6            374                DJNZ R5,DEL31
031A 22              375                RET
                     376     
031B                 377     DELAY2:
031B 7E0C            378                MOV  R6,#0CH
031D 7F18            379     DEL21:     MOV  R7,#18H
031F DFFE            380     DEL22:     DJNZ R7,DEL22
0321 DEFA            381                DJNZ R6,DEL21
0323 22              382                RET
                     383     
0324                 384     DELAY1:
0324 7E06            385                MOV  R6,#06H
0326 7F08            386     DEL11:     MOV  R7,#08H
0328 DFFE            387     DEL12:     DJNZ R7,DEL12
032A DEFA            388                DJNZ R6,DEL11
A51 MACRO ASSEMBLER  12864_CHS                                                            03/29/2005 16:03:58 PAGE     7

032C 22              389                RET
                     390     
032D                 391     DELAY4:
032D 7EC8            392                MOV  R6,#200
032F 7FC8            393     DEL41:     MOV  R7,#200
0331 DFFE            394     DEL42:     DJNZ R7,DEL42
0333 DEFA            395                DJNZ R6,DEL41
0335 22              396                RET
                     397     
0336                 398     DELAY5:
0336 7D05            399                MOV  R5,#05H
0338 7EFF            400     DEL51:     MOV  R6,#0FFH
033A 7FFF            401     DEL52:     MOV  R7,#0FFH
033C DFFE            402     DEL53:     DJNZ R7,DEL53
033E DEFA            403                DJNZ R6,DEL52
0340 DDF6            404                DJNZ R5,DEL51
0342 22              405                RET
                     406     ;***********************************************
0343                 407     TAB1:
0343 20202020        408     TAB1A:     DB  '    伟纳电子    '    ;显示在第一行
0347 CEB0C4C9                
034B B5E7D7D3                
034F 20202020                
0353 B5A5C6AC        409     TAB1C:     DB  '单片机学习开发板'    ;显示在第三行
0357 BBFAD1A7                
035B CFB0BFAA                
035F B7A2B0E5                
0363 20575757        410     TAB1B:     DB  ' WWW.WILLAR.COM '    ;显示在第二行
0367 2E57494C                
036B 4C41522E                
036F 434F4D20                
0373 54454C3A        411     TAB1D:     DB  'TEL:0663-6888048'    ;显示在第四行
0377 30363633                
037B 2D363838                
037F 38303438                
                     412     
                     413     
0383                 414     TAB3:
0383 20202020        415                DB '     ME300B     '     ;显示在第一行
0387 204D4533                
038B 30304220                
038F 20202020                
0393 C6ACBBFA        416                DB '片机知识最佳选择'     ;显示在第三行
0397 D6AACAB6                
039B D7EEBCD1                
039F D1A1D4F1                
03A3 CAC7C4FA        417                DB '是您学习和掌握单'     ;显示在第二行
03A7 D1A7CFB0                
03AB BACDD5C6                
03AF CED5B5A5                
03B3 A3ADA3AD        418                DB '－－欢迎使用－－'     ;显示在第四行
03B7 BBB6D3AD                
03BB CAB9D3C3                
03BF A3ADA3AD                
                     419     
                     420     ;==================================================================================
03C3                 421     TU_TAB1:             ;伟纳电子图片
03C3 FFFFFFFF        422     DB  0FFH,0FFH,0FFH,0FFH,0FFH,0FFH,0FFH,0FFH,0FFH,0FFH,0FFH,0FFH,0FFH,0FFH,0FFH,0FFH
03C7 FFFFFFFF                
03CB FFFFFFFF                
03CF FFFFFFFF                
03D3 80000000        423     DB  080H,000H,000H,000H,000H,000H,000H,000H,000H,000H,000H,000H,000H,000H,000H,001H
03D7 00000000                
03DB 00000000                
03DF 00000001                
03E3 80000000        424     DB  080H,000H,000H,000H,000H,000H,000H,000H,000H,000H,000H,000H,000H,000H,000H,001H
A51 MACRO ASSEMBLER  12864_CHS                                                            03/29/2005 16:03:58 PAGE     8

03E7 00000000                
03EB 00000000                
03EF 00000001                
03F3 80000000        425     DB  080H,000H,000H,000H,000H,000H,000H,000H,000H,000H,000H,000H,000H,000H,000H,001H
03F7 00000000                
03FB 00000000                
03FF 00000001                
0403 80000000        426     DB  080H,000H,000H,000H,000H,000H,000H,008H,010H,000H,000H,002H,000H,002H,000H,001H
0407 00000008                
040B 10000002                
040F 00020001                
0413 80000000        427     DB  080H,000H,000H,000H,000H,004H,080H,088H,011H,0E1H,0FFH,01AH,041H,0FCH,010H,041H
0417 00048088                
041B 11E1FF1A                
041F 41FC1041                
0423 88BE71C7        428     DB  088H,0BEH,071H,0C7H,03CH,01FH,0E0H,088H,011H,020H,048H,012H,040H,028H,013H,0F1H
0427 3C1FE088                
042B 11204812                
042F 402813F1                
0433 88A08A28        429     DB  088H,0A0H,08AH,028H,0A2H,012H,020H,088H,03DH,020H,048H,03FH,0F0H,04CH,02CH,081H
0437 A2122088                
043B 3D20483F                
043F F04C2C81                
0443 8DA00A28        430     DB  08DH,0A0H,00AH,028H,0A2H,01FH,0E0H,0F6H,011H,020H,048H,004H,000H,0F0H,039H,021H
0447 A21FE0F6                
044B 11204804                
044F 00F03921                
0453 8DBC3228        431     DB  08DH,0BCH,032H,028H,0BCH,012H,020H,080H,019H,023H,0FFH,007H,0E0H,046H,013H,0F1H
0457 BC122080                
045B 1923FF07                
045F E04613F1                
0463 8AA00A28        432     DB  08AH,0A0H,00AH,028H,0A2H,01FH,0E0H,0FCH,035H,020H,048H,00AH,041H,0FFH,021H,041H
0467 A21FE0FC                
046B 3520480A                
046F 41FF2141                
0473 8AA08A28        433     DB  08AH,0A0H,08AH,028H,0A2H,002H,000H,084H,031H,020H,048H,01AH,040H,012H,039H,041H
0477 A2020084                
047B 3120481A                
047F 40123941                
0483 8AA08A28        434     DB  08AH,0A0H,08AH,028H,0A2H,03FH,0F1H,004H,012H,020H,088H,031H,080H,096H,001H,041H
0487 A23FF104                
048B 12208831                
048F 80960141                
0493 8ABE71C7        435     DB  08AH,0BEH,071H,0C7H,03CH,002H,001H,004H,012H,031H,088H,023H,0C3H,013H,03DH,051H
0497 3C020104                
049B 12318823                
049F C3133D51                
04A3 80000000        436     DB  080H,000H,000H,000H,000H,002H,003H,004H,016H,031H,008H,01CH,030H,030H,006H,071H
04A7 00020304                
04AB 1631081C                
04AF 30300671                
04B3 80000000        437     DB  080H,000H,000H,000H,000H,000H,000H,000H,000H,000H,000H,000H,000H,000H,000H,001H
04B7 00000000                
04BB 00000000                
04BF 00000001                
04C3 80000000        438     DB  080H,000H,000H,000H,000H,000H,000H,000H,000H,000H,000H,000H,000H,000H,000H,001H
04C7 00000000                
04CB 00000000                
04CF 00000001                
04D3 80000000        439     DB  080H,000H,000H,000H,000H,000H,000H,000H,000H,000H,000H,000H,000H,000H,000H,001H
04D7 00000000                
04DB 00000000                
04DF 00000001                
04E3 80000000        440     DB  080H,000H,000H,000H,000H,000H,000H,000H,000H,000H,000H,000H,000H,000H,000H,001H
04E7 00000000                
04EB 00000000                
A51 MACRO ASSEMBLER  12864_CHS                                                            03/29/2005 16:03:58 PAGE     9

04EF 00000001                
04F3 80000000        441     DB  080H,000H,000H,000H,000H,000H,000H,000H,000H,000H,000H,000H,000H,000H,000H,001H
04F7 00000000                
04FB 00000000                
04FF 00000001                
0503 80000000        442     DB  080H,000H,000H,000H,000H,000H,000H,000H,000H,000H,000H,000H,000H,000H,000H,001H
0507 00000000                
050B 00000000                
050F 00000001                
0513 80000000        443     DB  080H,000H,000H,000H,000H,000H,000H,000H,000H,000H,000H,000H,000H,000H,000H,001H
0517 00000000                
051B 00000000                
051F 00000001                
0523 80000000        444     DB  080H,000H,000H,000H,000H,000H,000H,000H,000H,000H,000H,000H,000H,000H,000H,001H
0527 00000000                
052B 00000000                
052F 00000001                
0533 80000000        445     DB  080H,000H,000H,000H,000H,000H,000H,000H,000H,000H,000H,000H,000H,000H,000H,001H
0537 00000000                
053B 00000000                
053F 00000001                
0543 80000000        446     DB  080H,000H,000H,000H,000H,000H,000H,060H,000H,000H,000H,002H,000H,000H,000H,001H
0547 00000060                
054B 00000002                
054F 00000001                
0553 801F87E0        447     DB  080H,01FH,087H,0E0H,0FCH,000H,018H,060H,000H,083H,000H,002H,000H,001H,0FFH,081H
0557 FC001860                
055B 00830002                
055F 0001FF81                
0563 801F87E0        448     DB  080H,01FH,087H,0E0H,0FCH,000H,077H,0FEH,001H,083H,000H,0FFH,0F8H,003H,083H,081H
0567 FC0077FE                
056B 018300FF                
056F F8038381                
0573 801F87E0        449     DB  080H,01FH,087H,0E0H,0FCH,001H,0F4H,060H,002H,03FH,0F0H,0E6H,018H,000H,01EH,001H
0577 FC01F460                
057B 023FF0E6                
057F 18001E01                
0583 801FC3E0        450     DB  080H,01FH,0C3H,0E0H,0FCH,001H,0B3H,0FEH,00CH,0DBH,030H,0C6H,018H,000H,00CH,001H
0587 FC01B3FE                
058B 0CDB30C6                
058F 18000C01                
0593 801FC3E0        451     DB  080H,01FH,0C3H,0E0H,0FFH,080H,034H,060H,00FH,093H,030H,0FFH,0F8H,01FH,0FFH,0F9H
0597 FF803460                
059B 0F9330FF                
059F F81FFFF9                
05A3 801FC3E7        452     DB  080H,01FH,0C3H,0E7H,0FFH,0E0H,037H,0FFH,082H,013H,030H,0C6H,018H,01EH,00CH,0F9H
05A7 FFE037FF                
05AB 821330C6                
05AF 181E0CF9                
05B3 801FC3FF        453     DB  080H,01FH,0C3H,0FFH,0FFH,0E0H,03EH,061H,087H,097H,0B0H,07FH,0F8H,000H,00CH,001H
05B7 FFE03E61                
05BB 8797B07F                
05BF F8000C01                
05C3 800FC3F8        454     DB  080H,00FH,0C3H,0F8H,078H,070H,030H,063H,006H,01CH,0F0H,07AH,010H,000H,00CH,001H
05C7 78703063                
05CB 061CF07A                
05CF 10000C01                
05D3 800FCFF0        455     DB  080H,00FH,0CFH,0F0H,078H,070H,030H,06EH,001H,0F8H,030H,003H,000H,080H,00CH,001H
05D7 7870306E                
05DB 01F83003                
05DF 00800C01                
05E3 800FFFF0        456     DB  080H,00FH,0FFH,0F0H,078H,060H,030H,070H,03EH,030H,030H,003H,0FFH,080H,01CH,001H
05E7 78603070                
05EB 3E303003                
05EF FF801C01                
05F3 800FFDF0        457     DB  080H,00FH,0FDH,0F0H,038H,0E0H,030H,060H,010H,0E0H,030H,001H,0FFH,001H,0F8H,001H
A51 MACRO ASSEMBLER  12864_CHS                                                            03/29/2005 16:03:58 PAGE    10

05F7 38E03060                
05FB 10E03001                
05FF FF01F801                
0603 8007F1F0        458     DB  080H,007H,0F1H,0F0H,039H,0E0H,020H,060H,000H,000H,000H,000H,03EH,000H,070H,001H
0607 39E02060                
060B 00000000                
060F 3E007001                
0613 8007E1F0        459     DB  080H,007H,0E1H,0F0H,03BH,0C0H,000H,000H,000H,000H,000H,000H,000H,000H,000H,001H
0617 3BC00000                
061B 00000000                
061F 00000001                
0623 800FE1F8        460     DB  080H,00FH,0E1H,0F8H,03BH,000H,000H,000H,000H,000H,000H,000H,000H,000H,000H,001H
0627 3B000000                
062B 00000000                
062F 00000001                
0633 801FE0F8        461     DB  080H,01FH,0E0H,0F8H,03FH,000H,000H,000H,000H,000H,000H,000H,000H,000H,000H,001H
0637 3F000000                
063B 00000000                
063F 00000001                
0643 803FF0F8        462     DB  080H,03FH,0F0H,0F8H,01CH,000H,000H,000H,000H,000H,000H,000H,000H,000H,000H,001H
0647 1C000000                
064B 00000000                
064F 00000001                
0653 8077F0F8        463     DB  080H,077H,0F0H,0F8H,03CH,000H,0FFH,0FFH,0FFH,0FFH,0FFH,0FFH,0FFH,0FFH,0FFH,0F1H
0657 3C00FFFF                
065B FFFFFFFF                
065F FFFFFFF1                
0663 81C7F0F8        464     DB  081H,0C7H,0F0H,0F8H,0F8H,000H,000H,000H,000H,000H,000H,000H,000H,000H,000H,001H
0667 F8000000                
066B 00000000                
066F 00000001                
0673 81C3F0F9        465     DB  081H,0C3H,0F0H,0F9H,0F0H,000H,000H,000H,000H,000H,000H,000H,000H,000H,000H,001H
0677 F0000000                
067B 00000000                
067F 00000001                
0683 8383F0FF        466     DB  083H,083H,0F0H,0FFH,0D0H,000H,000H,000H,000H,000H,000H,000H,000H,000H,000H,001H
0687 D0000000                
068B 00000000                
068F 00000001                
0693 8703F0FF        467     DB  087H,003H,0F0H,0FFH,090H,000H,000H,000H,000H,000H,000H,000H,000H,000H,000H,001H
0697 90000000                
069B 00000000                
069F 00000001                
06A3 8E03F0FE        468     DB  08EH,003H,0F0H,0FEH,010H,000H,000H,000H,000H,001H,024H,000H,000H,000H,000H,001H
06A7 10000000                
06AB 00012400                
06AF 00000001                
06B3 8E01F0FC        469     DB  08EH,001H,0F0H,0FCH,010H,000H,000H,000H,000H,000H,024H,000H,000H,000H,000H,001H
06B7 10000000                
06BB 00002400                
06BF 00000001                
06C3 8C01F3FC        470     DB  08CH,001H,0F3H,0FCH,000H,011H,088H,0C4H,044H,045H,024H,071H,043H,00EH,02CH,0C1H
06C7 001188C4                
06CB 44452471                
06CF 430E2CC1                
06D3 9C01FFFC        471     DB  09CH,001H,0FFH,0FCH,000H,011H,088H,0C4H,044H,045H,024H,089H,084H,091H,033H,021H
06D7 001188C4                
06DB 44452489                
06DF 84913321                
06E3 9E01FFFC        472     DB  09EH,001H,0FFH,0FCH,000H,00AH,055H,02AH,082H,0A9H,024H,009H,004H,011H,022H,021H
06E7 000A552A                
06EB 82A92409                
06EF 04112221                
06F3 8FFFF87C        473     DB  08FH,0FFH,0F8H,07CH,000H,00AH,055H,02AH,082H,0A9H,024H,079H,004H,011H,022H,021H
06F7 000A552A                
06FB 82A92479                
A51 MACRO ASSEMBLER  12864_CHS                                                            03/29/2005 16:03:58 PAGE    11

06FF 04112221                
0703 83FFF87E        474     DB  083H,0FFH,0F8H,07EH,000H,00AH,055H,02AH,082H,0A9H,024H,089H,004H,011H,022H,021H
0707 000A552A                
070B 82A92489                
070F 04112221                
0713 8001FC7E        475     DB  080H,001H,0FCH,07EH,000H,004H,022H,011H,001H,011H,024H,099H,004H,091H,022H,021H
0717 00042211                
071B 01112499                
071F 04912221                
0723 8000FC7E        476     DB  080H,000H,0FCH,07EH,000H,004H,022H,011H,011H,011H,024H,069H,023H,00EH,022H,021H
0727 00042211                
072B 11112469                
072F 230E2221                
0733 8000FC3E        477     DB  080H,000H,0FCH,03EH,000H,000H,000H,000H,000H,000H,000H,000H,000H,000H,000H,001H
0737 00000000                
073B 00000000                
073F 00000001                
0743 8000FC3E        478     DB  080H,000H,0FCH,03EH,000H,000H,000H,000H,000H,000H,000H,000H,000H,000H,000H,001H
0747 00000000                
074B 00000000                
074F 00000001                
0753 80000000        479     DB  080H,000H,000H,000H,000H,000H,000H,000H,000H,000H,000H,000H,000H,000H,000H,001H
0757 00000000                
075B 00000000                
075F 00000001                
0763 80000000        480     DB  080H,000H,000H,000H,000H,000H,000H,000H,000H,000H,000H,000H,000H,000H,000H,001H
0767 00000000                
076B 00000000                
076F 00000001                
0773 80000000        481     DB  080H,000H,000H,000H,000H,000H,000H,000H,000H,000H,000H,000H,000H,000H,000H,001H
0777 00000000                
077B 00000000                
077F 00000001                
0783 80000000        482     DB  080H,000H,000H,000H,000H,000H,000H,000H,000H,000H,000H,000H,000H,000H,000H,001H
0787 00000000                
078B 00000000                
078F 00000001                
0793 80000000        483     DB  080H,000H,000H,000H,000H,000H,000H,000H,000H,000H,000H,000H,000H,000H,000H,001H
0797 00000000                
079B 00000000                
079F 00000001                
07A3 80000000        484     DB  080H,000H,000H,000H,000H,000H,000H,000H,000H,000H,000H,000H,000H,000H,000H,001H
07A7 00000000                
07AB 00000000                
07AF 00000001                
07B3 FFFFFFFF        485     DB  0FFH,0FFH,0FFH,0FFH,0FFH,0FFH,0FFH,0FFH,0FFH,0FFH,0FFH,0FFH,0FFH,0FFH,0FFH,0FFH
07B7 FFFFFFFF                
07BB FFFFFFFF                
07BF FFFFFFFF                
                     486     ;以上您调入了一幅图象: 长度x宽度=128x64,  调整后为: 128x64
                     487     
                     488     ;==================================================================================
                     489     
07C3                 490     TU_TAB2:       ;伟纳电子－300B介绍图片
07C3 FFFFFFFF        491     DB  0FFH,0FFH,0FFH,0FFH,0FFH,0FFH,0FFH,0FFH,0FFH,0FFH,0FFH,0FFH,0FFH,0FFH,0FFH,0FFH
07C7 FFFFFFFF                
07CB FFFFFFFF                
07CF FFFFFFFF                
07D3 80000000        492     DB  080H,000H,000H,000H,000H,000H,000H,000H,000H,000H,000H,000H,000H,000H,000H,001H
07D7 00000000                
07DB 00000000                
07DF 00000001                
07E3 80000000        493     DB  080H,000H,000H,000H,000H,000H,000H,000H,000H,000H,000H,000H,000H,000H,000H,001H
07E7 00000000                
07EB 00000000                
07EF 00000001                
A51 MACRO ASSEMBLER  12864_CHS                                                            03/29/2005 16:03:58 PAGE    12

07F3 80000000        494     DB  080H,000H,000H,000H,000H,000H,000H,000H,000H,000H,000H,000H,000H,000H,000H,001H
07F7 00000000                
07FB 00000000                
07FF 00000001                
0803 80000000        495     DB  080H,000H,000H,000H,000H,000H,000H,008H,010H,000H,000H,002H,000H,002H,000H,001H
0807 00000008                
080B 10000002                
080F 00020001                
0813 80000000        496     DB  080H,000H,000H,000H,000H,004H,080H,088H,011H,0E1H,0FFH,01AH,041H,0FCH,010H,041H
0817 00048088                
081B 11E1FF1A                
081F 41FC1041                
0823 88BE71C7        497     DB  088H,0BEH,071H,0C7H,03CH,01FH,0E0H,088H,011H,020H,048H,012H,040H,028H,013H,0F1H
0827 3C1FE088                
082B 11204812                
082F 402813F1                
0833 88A08A28        498     DB  088H,0A0H,08AH,028H,0A2H,012H,020H,088H,03DH,020H,048H,03FH,0F0H,04CH,02CH,081H
0837 A2122088                
083B 3D20483F                
083F F04C2C81                
0843 8DA00A28        499     DB  08DH,0A0H,00AH,028H,0A2H,01FH,0E0H,0F6H,011H,020H,048H,004H,000H,0F0H,039H,021H
0847 A21FE0F6                
084B 11204804                
084F 00F03921                
0853 8DBC3228        500     DB  08DH,0BCH,032H,028H,0BCH,012H,020H,080H,019H,023H,0FFH,007H,0E0H,046H,013H,0F1H
0857 BC122080                
085B 1923FF07                
085F E04613F1                
0863 8AA00A28        501     DB  08AH,0A0H,00AH,028H,0A2H,01FH,0E0H,0FCH,035H,020H,048H,00AH,041H,0FFH,021H,041H
0867 A21FE0FC                
086B 3520480A                
086F 41FF2141                
0873 8AA08A28        502     DB  08AH,0A0H,08AH,028H,0A2H,002H,000H,084H,031H,020H,048H,01AH,040H,012H,039H,041H
0877 A2020084                
087B 3120481A                
087F 40123941                
0883 8AA08A28        503     DB  08AH,0A0H,08AH,028H,0A2H,03FH,0F1H,004H,012H,020H,088H,031H,080H,096H,001H,041H
0887 A23FF104                
088B 12208831                
088F 80960141                
0893 8ABE71C7        504     DB  08AH,0BEH,071H,0C7H,03CH,002H,001H,004H,012H,031H,088H,023H,0C3H,013H,03DH,051H
0897 3C020104                
089B 12318823                
089F C3133D51                
08A3 80000000        505     DB  080H,000H,000H,000H,000H,002H,003H,004H,016H,031H,008H,01CH,030H,030H,006H,071H
08A7 00020304                
08AB 1631081C                
08AF 30300671                
08B3 80000000        506     DB  080H,000H,000H,000H,000H,000H,000H,000H,000H,000H,000H,000H,000H,000H,000H,001H
08B7 00000000                
08BB 00000000                
08BF 00000001                
08C3 80000000        507     DB  080H,000H,000H,000H,000H,000H,000H,000H,000H,000H,000H,000H,000H,000H,000H,001H
08C7 00000000                
08CB 00000000                
08CF 00000001                
08D3 80000000        508     DB  080H,000H,000H,000H,000H,000H,000H,000H,000H,000H,000H,000H,000H,000H,000H,001H
08D7 00000000                
08DB 00000000                
08DF 00000001                
08E3 80000008        509     DB  080H,000H,000H,008H,01EH,020H,000H,004H,020H,06FH,080H,000H,024H,000H,080H,001H
08E7 1E200004                
08EB 206F8000                
08EF 24008001                
08F3 800000FF        510     DB  080H,000H,000H,0FFH,0C2H,020H,000H,005H,0FDH,0C8H,080H,000H,042H,01FH,0F8H,001H
08F7 C2200005                
A51 MACRO ASSEMBLER  12864_CHS                                                            03/29/2005 16:03:58 PAGE    13

08FB FDC88000                
08FF 421FF801                
0903 80000080        511     DB  080H,000H,000H,080H,04AH,050H,000H,009H,004H,048H,080H,000H,07FH,0C7H,0E0H,001H
0907 4A500009                
090B 04488000                
090F 7FC7E001                
0913 80000124        512     DB  080H,000H,001H,024H,08AH,088H,000H,013H,0FDH,0EFH,080H,000H,0C4H,004H,020H,001H
0917 8A880013                
091B FDEF8000                
091F C4042001                
0923 80000014        513     DB  080H,000H,000H,014H,00BH,074H,000H,01DH,000H,040H,000H,001H,047H,087H,0E0H,001H
0927 0B74001D                
092B 00400001                
092F 4787E001                
0933 80000044        514     DB  080H,000H,000H,044H,01EH,000H,000H,009H,0FCH,0DFH,0C0H,000H,044H,084H,020H,001H
0937 1E000009                
093B FCDFC000                
093F 44842001                
0943 80000024        515     DB  080H,000H,000H,024H,002H,0A8H,000H,017H,054H,0E2H,000H,000H,044H,087H,0E0H,001H
0947 02A80017                
094B 54E20000                
094F 4487E001                
0953 800001FF        516     DB  080H,000H,001H,0FFH,0C6H,0A9H,000H,019H,0FDH,04FH,090H,000H,048H,084H,021H,001H
0957 C6A90019                
095B FD4F9000                
095F 48842101                
0963 8000000A        517     DB  080H,000H,000H,00AH,01AH,0A8H,0C0H,005H,055H,042H,00CH,000H,048H,09FH,0FCH,0C1H
0967 1AA8C005                
096B 55420C00                
096F 489FFCC1                
0973 80000011        518     DB  080H,000H,000H,011H,002H,010H,040H,01BH,054H,042H,004H,000H,050H,082H,020H,041H
0977 0210401B                
097B 54420400                
097F 50822041                
0983 800000E0        519     DB  080H,000H,000H,0E0H,08DH,0FCH,000H,005H,00CH,05FH,0C0H,000H,063H,01CH,018H,001H
0987 8DFC0005                
098B 0C5FC000                
098F 631C1801                
0993 80000000        520     DB  080H,000H,000H,000H,000H,000H,000H,000H,000H,000H,000H,000H,000H,000H,000H,001H
0997 00000000                
099B 00000000                
099F 00000001                
09A3 80000000        521     DB  080H,000H,000H,000H,000H,000H,000H,000H,000H,000H,000H,000H,000H,000H,000H,001H
09A7 00000000                
09AB 00000000                
09AF 00000001                
09B3 80000000        522     DB  080H,000H,000H,000H,000H,000H,000H,000H,000H,000H,000H,000H,000H,000H,000H,001H
09B7 00000000                
09BB 00000000                
09BF 00000001                
09C3 80000002        523     DB  080H,000H,000H,002H,000H,088H,010H,020H,020H,000H,028H,000H,041H,004H,004H,081H
09C7 00881020                
09CB 20002800                
09CF 41040481                
09D3 8000007F        524     DB  080H,000H,000H,07FH,0F3H,0FEH,013H,0F0H,050H,000H,028H,007H,0E1H,024H,008H,0C1H
09D7 F3FE13F0                
09DB 50002807                
09DF E12408C1                
09E3 8F9EF040        525     DB  08FH,09EH,0F0H,040H,010H,020H,02AH,020H,088H,003H,0EFH,084H,041H,025H,009H,021H
09E7 10202A20                
09EB 8803EF84                
09EF 41250921                
09F3 8222481F        526     DB  082H,022H,048H,01FH,0C3H,0FEH,04AH,021H,004H,000H,028H,004H,043H,0BFH,09AH,011H
09F7 C3FE4A21                
09FB 04002804                
09FF 43BF9A11                
A51 MACRO ASSEMBLER  12864_CHS                                                            03/29/2005 16:03:58 PAGE    14

0A03 82204800        527     DB  082H,020H,048H,000H,000H,020H,073H,0E6H,0FBH,000H,028H,006H,043H,024H,02DH,029H
0A07 002073E6                
0A0B FB002806                
0A0F 43242D29                
0A13 82187000        528     DB  082H,018H,070H,000H,007H,0FFH,012H,020H,000H,001H,0EFH,005H,041H,044H,009H,021H
0A17 07FF1220                
0A1B 0001EF05                
0A1F 41440921                
0A23 8204407F        529     DB  082H,004H,040H,07FH,0F0H,020H,02AH,020H,000H,000H,028H,005H,041H,03FH,089H,021H
0A27 F0202A20                
0A2B 00002805                
0A2F 413F8921                
0A33 82024009        530     DB  082H,002H,040H,009H,003H,0FEH,073H,0E1H,0FCH,000H,028H,004H,049H,004H,009H,021H
0A37 03FE73E1                
0A3B FC002804                
0A3F 49040921                
0A43 82224009        531     DB  082H,022H,040H,009H,010H,050H,00AH,021H,004H,033H,0EFH,088H,049H,004H,009H,021H
0A47 10500A21                
0A4B 0433EF88                
0A4F 49040921                
0A53 8FBCE011        532     DB  08FH,0BCH,0E0H,011H,010H,088H,032H,021H,004H,030H,028H,010H,049H,004H,00AH,021H
0A57 10883221                
0A5B 04302810                
0A5F 49040A21                
0A63 80000061        533     DB  080H,000H,000H,061H,0F7H,007H,04FH,0F1H,0FCH,030H,028H,020H,079H,07FH,08CH,021H
0A67 F7074FF1                
0A6B FC302820                
0A6F 797F8C21                
0A73 80000000        534     DB  080H,000H,000H,000H,000H,000H,000H,000H,000H,060H,000H,000H,000H,000H,000H,001H
0A77 00000000                
0A7B 00600000                
0A7F 00000001                
0A83 80000000        535     DB  080H,000H,000H,000H,000H,000H,000H,000H,000H,000H,000H,000H,000H,000H,000H,001H
0A87 00000000                
0A8B 00000000                
0A8F 00000001                
0A93 80000000        536     DB  080H,000H,000H,000H,000H,000H,000H,000H,000H,000H,000H,000H,000H,000H,000H,001H
0A97 00000000                
0A9B 00000000                
0A9F 00000001                
0AA3 80000000        537     DB  080H,000H,000H,000H,000H,000H,000H,000H,000H,000H,000H,000H,000H,000H,000H,001H
0AA7 00000000                
0AAB 00000000                
0AAF 00000001                
0AB3 82100051        538     DB  082H,010H,000H,051H,000H,008H,000H,081H,020H,04FH,084H,050H,008H,004H,000H,001H
0AB7 00080081                
0ABB 204F8450                
0ABF 08040001                
0AC3 82100029        539     DB  082H,010H,000H,029H,00FH,0FCH,0FFH,0C9H,011H,0F0H,084H,050H,07FH,084H,000H,061H
0AC7 0FFCFFC9                
0ACB 11F08450                
0ACF 7F840061                
0AD3 821101FF        540     DB  082H,011H,001H,0FFH,0C2H,008H,022H,009H,000H,081H,01EH,090H,040H,09FH,07CH,0F1H
0AD7 C2082209                
0ADB 00811E90                
0ADF 409F7CF1                
0AE3 82120100        541     DB  082H,012H,001H,000H,041H,008H,022H,01FH,0FCH,0C2H,084H,088H,040H,085H,044H,0F1H
0AE7 4108221F                
0AEB FCC28488                
0AEF 408544F1                
0AF3 83DC017E        542     DB  083H,0DCH,001H,07EH,081H,008H,022H,002H,001H,044H,045H,008H,07FH,085H,044H,0F1H
0AF7 81082202                
0AFB 01444508                
0AFF 7F8544F1                
0B03 82100004        543     DB  082H,010H,000H,004H,000H,009H,0FFH,0C3H,0F1H,0F8H,04EH,024H,040H,089H,044H,061H
0B07 0009FFC3                
A51 MACRO ASSEMBLER  12864_CHS                                                            03/29/2005 16:03:58 PAGE    15

0B0B F1F84E24                
0B0F 40894461                
0B13 82100008        544     DB  082H,010H,000H,008H,000H,068H,022H,002H,090H,04FH,094H,020H,040H,089H,044H,061H
0B17 00682202                
0B1B 904F9420                
0B1F 40894461                
0B23 821101FF        545     DB  082H,011H,001H,0FFH,0C1H,088H,022H,004H,0A0H,072H,014H,040H,07FH,08DH,044H,001H
0B27 C1882204                
0B2B A0721440                
0B2F 7F8D4401                
0B33 82511808        546     DB  082H,051H,018H,008H,01EH,008H,022H,004H,041H,0C2H,004H,050H,040H,082H,044H,061H
0B37 1E082204                
0B3B 41C20450                
0B3F 40824461                
0B43 83911808        547     DB  083H,091H,018H,008H,008H,008H,042H,009H,0B0H,042H,004H,088H,040H,085H,07CH,061H
0B47 08084209                
0B4B B0420488                
0B4F 40857C61                
0B53 821F1838        548     DB  082H,01FH,018H,038H,000H,071H,082H,016H,00CH,05FH,0C5H,0F8H,07FH,098H,000H,001H
0B57 00718216                
0B5B 0C5FC5F8                
0B5F 7F980001                
0B63 80003000        549     DB  080H,000H,030H,000H,000H,000H,000H,000H,000H,000H,000H,000H,000H,000H,000H,001H
0B67 00000000                
0B6B 00000000                
0B6F 00000001                
0B73 80000000        550     DB  080H,000H,000H,000H,000H,000H,000H,000H,000H,000H,000H,000H,000H,000H,000H,001H
0B77 00000000                
0B7B 00000000                
0B7F 00000001                
0B83 80000000        551     DB  080H,000H,000H,000H,000H,000H,000H,000H,000H,000H,000H,000H,000H,000H,000H,001H
0B87 00000000                
0B8B 00000000                
0B8F 00000001                
0B93 80000000        552     DB  080H,000H,000H,000H,000H,000H,000H,000H,000H,000H,000H,000H,000H,000H,000H,001H
0B97 00000000                
0B9B 00000000                
0B9F 00000001                
0BA3 80000000        553     DB  080H,000H,000H,000H,000H,000H,000H,000H,000H,000H,000H,000H,000H,000H,000H,001H
0BA7 00000000                
0BAB 00000000                
0BAF 00000001                
0BB3 FFFFFFFF        554     DB  0FFH,0FFH,0FFH,0FFH,0FFH,0FFH,0FFH,0FFH,0FFH,0FFH,0FFH,0FFH,0FFH,0FFH,0FFH,0FFH
0BB7 FFFFFFFF                
0BBB FFFFFFFF                
0BBF FFFFFFFF                
                     555     ;以上您调入了一幅图象: 长度x宽度=128x64,  调整后为: 128x64
                     556     
                     557     
                     558     ;====================================================================================
0BC3                 559     TU_TAB3:        ;我的文档、我的电脑图片
                     560     
0BC3 FFFFFFFF        561     DB  0FFH,0FFH,0FFH,0FFH,0FFH,0FFH,0FFH,0FFH,0FFH,0FFH,0FFH,0FFH,0FFH,0FFH,0FFH,0FFH
0BC7 FFFFFFFF                
0BCB FFFFFFFF                
0BCF FFFFFFFF                
0BD3 80000000        562     DB  080H,000H,000H,000H,000H,000H,000H,000H,000H,000H,000H,000H,000H,000H,000H,001H
0BD7 00000000                
0BDB 00000000                
0BDF 00000001                
0BE3 80000000        563     DB  080H,000H,000H,000H,000H,000H,000H,000H,000H,000H,000H,000H,000H,000H,000H,001H
0BE7 00000000                
0BEB 00000000                
0BEF 00000001                
0BF3 80000000        564     DB  080H,000H,000H,000H,000H,000H,000H,000H,000H,000H,000H,000H,000H,000H,000H,001H
0BF7 00000000                
A51 MACRO ASSEMBLER  12864_CHS                                                            03/29/2005 16:03:58 PAGE    16

0BFB 00000000                
0BFF 00000001                
0C03 80000000        565     DB  080H,000H,000H,000H,000H,000H,000H,000H,000H,000H,000H,000H,000H,000H,000H,001H
0C07 00000000                
0C0B 00000000                
0C0F 00000001                
0C13 80000000        566     DB  080H,000H,000H,000H,000H,000H,000H,000H,000H,000H,000H,000H,000H,000H,000H,001H
0C17 00000000                
0C1B 00000000                
0C1F 00000001                
0C23 80000000        567     DB  080H,000H,000H,000H,000H,000H,000H,000H,000H,000H,000H,03FH,0FFH,0F0H,000H,001H
0C27 00000000                
0C2B 0000003F                
0C2F FFF00001                
0C33 80000000        568     DB  080H,000H,000H,000H,000H,000H,000H,000H,000H,000H,000H,040H,000H,018H,000H,001H
0C37 00000000                
0C3B 00000040                
0C3F 00180001                
0C43 80000000        569     DB  080H,000H,000H,000H,000H,000H,000H,000H,000H,000H,000H,0BFH,0FFH,0DCH,000H,001H
0C47 00000000                
0C4B 000000BF                
0C4F FFDC0001                
0C53 80001FFF        570     DB  080H,000H,01FH,0FFH,0FFH,000H,000H,000H,000H,000H,000H,0BFH,0FFH,0BCH,000H,001H
0C57 FF000000                
0C5B 000000BF                
0C5F FFBC0001                
0C63 80003000        571     DB  080H,000H,030H,000H,001H,080H,000H,000H,000H,000H,001H,07FH,0FFH,0B8H,000H,001H
0C67 01800000                
0C6B 0000017F                
0C6F FFB80001                
0C73 80003000        572     DB  080H,000H,030H,000H,000H,080H,000H,000H,000H,000H,001H,07FH,0FFH,078H,000H,001H
0C77 00800000                
0C7B 0000017F                
0C7F FF780001                
0C83 800019FF        573     DB  080H,000H,019H,0FFH,0FEH,0C0H,000H,000H,000H,000H,002H,0FFH,0FFH,070H,000H,001H
0C87 FEC00000                
0C8B 000002FF                
0C8F FF700001                
0C93 80001800        574     DB  080H,000H,018H,000H,000H,040H,000H,000H,000H,000H,002H,0FFH,0FEH,0F0H,000H,001H
0C97 00400000                
0C9B 000002FF                
0C9F FEF00001                
0CA3 80000C01        575     DB  080H,000H,00CH,001H,0FFH,060H,000H,000H,000H,000H,005H,0FFH,0FEH,0E0H,000H,001H
0CA7 FF600000                
0CAB 000005FF                
0CAF FEE00001                
0CB3 80000C7F        576     DB  080H,000H,00CH,07FH,0D0H,020H,000H,000H,000H,000H,005H,0FFH,0FDH,0E0H,000H,001H
0CB7 D0200000                
0CBB 000005FF                
0CBF FDE00001                
0CC3 80000600        577     DB  080H,000H,006H,000H,00FH,0B0H,000H,000H,000H,000H,00BH,0FFH,0FDH,0C0H,000H,001H
0CC7 0FB00000                
0CCB 00000BFF                
0CCF FDC00001                
0CD3 80000603        578     DB  080H,000H,006H,003H,0FCH,010H,000H,000H,000H,000H,00BH,0FFH,0FBH,0C0H,000H,001H
0CD7 FC100000                
0CDB 00000BFF                
0CDF FBC00001                
0CE3 8000031F        579     DB  080H,000H,003H,01FH,000H,018H,000H,000H,000H,000H,017H,0FFH,0FBH,080H,000H,001H
0CE7 00180000                
0CEB 000017FF                
0CEF FB800001                
0CF3 80000300        580     DB  080H,000H,003H,000H,000H,008H,000H,000H,000H,000H,017H,0FFH,0F7H,080H,000H,001H
0CF7 00080000                
0CFB 000017FF                
0CFF F7800001                
A51 MACRO ASSEMBLER  12864_CHS                                                            03/29/2005 16:03:58 PAGE    17

0D03 80000180        581     DB  080H,000H,001H,080H,000H,00CH,000H,000H,000H,000H,017H,0FFH,0F7H,000H,000H,001H
0D07 000C0000                
0D0B 000017FF                
0D0F F7000001                
0D13 80000180        582     DB  080H,000H,001H,080H,000H,004H,000H,000H,000H,000H,009H,0FFH,0EFH,000H,000H,001H
0D17 00040000                
0D1B 000009FF                
0D1F EF000001                
0D23 800000C0        583     DB  080H,000H,000H,0C0H,000H,0F6H,000H,000H,000H,000H,006H,07FH,0EEH,000H,000H,001H
0D27 00F60000                
0D2B 0000067F                
0D2F EE000001                
0D33 800000C0        584     DB  080H,000H,000H,0C0H,003H,0C2H,000H,000H,000H,000H,001H,09FH,0DEH,000H,000H,001H
0D37 03C20000                
0D3B 0000019F                
0D3F DE000001                
0D43 80000060        585     DB  080H,000H,000H,060H,000H,03BH,000H,000H,000H,000H,000H,067H,0DFH,000H,000H,001H
0D47 003B0000                
0D4B 00000067                
0D4F DF000001                
0D53 80000060        586     DB  080H,000H,000H,060H,000H,0E3H,000H,000H,000H,000H,000H,019H,0BFH,000H,000H,001H
0D57 00E30000                
0D5B 00000019                
0D5F BF000001                
0D63 80000030        587     DB  080H,000H,000H,030H,003H,08EH,000H,000H,000H,000H,000H,006H,03FH,000H,000H,001H
0D67 038E0000                
0D6B 00000006                
0D6F 3F000001                
0D73 80000030        588     DB  080H,000H,000H,030H,006H,03CH,000H,000H,000H,000H,000H,001H,0FFH,000H,000H,001H
0D77 063C0000                
0D7B 00000001                
0D7F FF000001                
0D83 80000018        589     DB  080H,000H,000H,018H,000H,0F0H,000H,000H,000H,000H,000H,000H,0FFH,000H,000H,001H
0D87 00F00000                
0D8B 00000000                
0D8F FF000001                
0D93 80000018        590     DB  080H,000H,000H,018H,003H,0C0H,000H,000H,000H,000H,000H,00FH,07FH,080H,000H,001H
0D97 03C00000                
0D9B 0000000F                
0D9F 7F800001                
0DA3 8000000C        591     DB  080H,000H,000H,00CH,00FH,000H,000H,000H,000H,000H,000H,030H,01FH,0C0H,000H,001H
0DA7 0F000000                
0DAB 00000030                
0DAF 1FC00001                
0DB3 8000000C        592     DB  080H,000H,000H,00CH,03CH,000H,000H,000H,000H,000H,000H,040H,007H,0E0H,000H,001H
0DB7 3C000000                
0DBB 00000040                
0DBF 07E00001                
0DC3 80000006        593     DB  080H,000H,000H,006H,0F0H,000H,000H,000H,000H,000H,000H,0E0H,01FH,0E0H,000H,001H
0DC7 F0000000                
0DCB 000000E0                
0DCF 1FE00001                
0DD3 80000007        594     DB  080H,000H,000H,007H,0C0H,000H,000H,000H,000H,000H,000H,0F8H,03FH,0C0H,000H,001H
0DD7 C0000000                
0DDB 000000F8                
0DDF 3FC00001                
0DE3 80000003        595     DB  080H,000H,000H,003H,000H,000H,000H,000H,000H,000H,000H,07EH,0FFH,000H,000H,001H
0DE7 00000000                
0DEB 0000007E                
0DEF FF000001                
0DF3 80000000        596     DB  080H,000H,000H,000H,000H,000H,000H,000H,000H,000H,000H,01FH,0FCH,000H,000H,001H
0DF7 00000000                
0DFB 0000001F                
0DFF FC000001                
0E03 80000000        597     DB  080H,000H,000H,000H,000H,000H,000H,000H,000H,000H,000H,007H,0F0H,000H,000H,001H
0E07 00000000                
A51 MACRO ASSEMBLER  12864_CHS                                                            03/29/2005 16:03:58 PAGE    18

0E0B 00000007                
0E0F F0000001                
0E13 80000000        598     DB  080H,000H,000H,000H,000H,000H,000H,000H,000H,000H,000H,001H,0C0H,000H,000H,001H
0E17 00000000                
0E1B 00000001                
0E1F C0000001                
0E23 80000000        599     DB  080H,000H,000H,000H,000H,000H,000H,000H,000H,000H,000H,000H,000H,000H,000H,001H
0E27 00000000                
0E2B 00000000                
0E2F 00000001                
0E33 80000000        600     DB  080H,000H,000H,000H,000H,000H,000H,000H,000H,000H,000H,000H,000H,000H,000H,001H
0E37 00000000                
0E3B 00000000                
0E3F 00000001                
0E43 80000000        601     DB  080H,000H,000H,000H,000H,000H,000H,000H,000H,000H,000H,000H,000H,000H,000H,001H
0E47 00000000                
0E4B 00000000                
0E4F 00000001                
0E53 80000000        602     DB  080H,000H,000H,000H,000H,000H,000H,000H,000H,000H,000H,000H,000H,000H,000H,001H
0E57 00000000                
0E5B 00000000                
0E5F 00000001                
0E63 80054088        603     DB  080H,005H,040H,088H,004H,001H,008H,000H,000H,00AH,081H,010H,004H,000H,020H,001H
0E67 04010800                
0E6B 000A8110                
0E6F 04002001                
0E73 80792108        604     DB  080H,079H,021H,008H,002H,021H,049H,000H,000H,0F2H,042H,010H,004H,047H,010H,001H
0E77 02214900                
0E7B 00F24210                
0E7F 04471001                
0E83 800907DF        605     DB  080H,009H,007H,0DFH,07FH,0F7H,0AAH,000H,000H,012H,00FH,0BEH,07FH,0E5H,0FEH,001H
0E87 7FF7AA00                
0E8B 00120FBE                
0E8F 7FE5FE01                
0E93 807FF451        606     DB  080H,07FH,0F4H,051H,008H,081H,02CH,000H,000H,0FFH,0E8H,0A2H,044H,047H,000H,001H
0E97 08812C00                
0E9B 00FFE8A2                
0E9F 44470001                
0EA3 80090461        607     DB  080H,009H,004H,061H,008H,081H,07FH,000H,000H,012H,008H,0C2H,07FH,0C5H,04AH,001H
0EA7 08817F00                
0EAB 001208C2                
0EAF 7FC54A01                
0EB3 800B2451        608     DB  080H,00BH,024H,051H,008H,083H,081H,000H,000H,016H,048H,0A2H,044H,045H,06AH,001H
0EB7 08838100                
0EBB 001648A2                
0EBF 44456A01                
0EC3 801D47C9        609     DB  080H,01DH,047H,0C9H,005H,005H,001H,000H,000H,03AH,08FH,092H,044H,047H,052H,001H
0EC7 05050100                
0ECB 003A8F92                
0ECF 44475201                
0ED3 80688449        610     DB  080H,068H,084H,049H,005H,005H,07FH,000H,000H,0D1H,008H,092H,07FH,0C5H,06AH,001H
0ED7 05057F00                
0EDB 00D10892                
0EDF 7FC56A01                
0EE3 80099441        611     DB  080H,009H,094H,041H,002H,001H,001H,000H,000H,013H,028H,082H,044H,005H,04AH,001H
0EE7 02010100                
0EEB 00132882                
0EEF 44054A01                
0EF3 800E57C1        612     DB  080H,00EH,057H,0C1H,00DH,081H,001H,000H,000H,01CH,0AFH,082H,004H,029H,042H,001H
0EF7 0D810100                
0EFB 001CAF82                
0EFF 04294201                
0F03 8038344E        613     DB  080H,038H,034H,04EH,070H,071H,07FH,000H,000H,070H,068H,09CH,003H,0EBH,07EH,001H
0F07 70717F00                
0F0B 0070689C                
0F0F 03EB7E01                
A51 MACRO ASSEMBLER  12864_CHS                                                            03/29/2005 16:03:58 PAGE    19

0F13 80000000        614     DB  080H,000H,000H,000H,000H,000H,000H,000H,000H,000H,000H,000H,000H,000H,000H,001H
0F17 00000000                
0F1B 00000000                
0F1F 00000001                
0F23 80000000        615     DB  080H,000H,000H,000H,000H,000H,000H,000H,000H,000H,000H,000H,000H,000H,000H,001H
0F27 00000000                
0F2B 00000000                
0F2F 00000001                
0F33 80000000        616     DB  080H,000H,000H,000H,000H,000H,000H,000H,000H,000H,000H,000H,000H,000H,000H,001H
0F37 00000000                
0F3B 00000000                
0F3F 00000001                
0F43 80000000        617     DB  080H,000H,000H,000H,000H,000H,000H,000H,000H,000H,000H,000H,000H,000H,000H,001H
0F47 00000000                
0F4B 00000000                
0F4F 00000001                
0F53 80000000        618     DB  080H,000H,000H,000H,000H,000H,000H,000H,000H,000H,000H,000H,000H,000H,000H,001H
0F57 00000000                
0F5B 00000000                
0F5F 00000001                
0F63 80000000        619     DB  080H,000H,000H,000H,000H,000H,000H,000H,000H,000H,000H,000H,000H,000H,000H,001H
0F67 00000000                
0F6B 00000000                
0F6F 00000001                
0F73 80000000        620     DB  080H,000H,000H,000H,000H,000H,000H,000H,000H,000H,000H,000H,000H,000H,000H,001H
0F77 00000000                
0F7B 00000000                
0F7F 00000001                
0F83 80000000        621     DB  080H,000H,000H,000H,000H,000H,000H,000H,000H,000H,000H,000H,000H,000H,000H,001H
0F87 00000000                
0F8B 00000000                
0F8F 00000001                
0F93 80000000        622     DB  080H,000H,000H,000H,000H,000H,000H,000H,000H,000H,000H,000H,000H,000H,000H,001H
0F97 00000000                
0F9B 00000000                
0F9F 00000001                
0FA3 80000000        623     DB  080H,000H,000H,000H,000H,000H,000H,000H,000H,000H,000H,000H,000H,000H,000H,001H
0FA7 00000000                
0FAB 00000000                
0FAF 00000001                
0FB3 FFFFFFFF        624     DB  0FFH,0FFH,0FFH,0FFH,0FFH,0FFH,0FFH,0FFH,0FFH,0FFH,0FFH,0FFH,0FFH,0FFH,0FFH,0FFH
0FB7 FFFFFFFF                
0FBB FFFFFFFF                
0FBF FFFFFFFF                
                     625     
                     626     ;==================================================================================
0FC3                 627     TU_TAB4:
                     628     
0FC3 00000000        629     DB  00,00,00,00,00,00,00,00,00,00,00,00,00,00,00,00
0FC7 00000000                
0FCB 00000000                
0FCF 00000000                
0FD3 00000000        630     DB  00,00,00,00,00,00,00,00,00,00,00,00,00,00,00,00
0FD7 00000000                
0FDB 00000000                
0FDF 00000000                
0FE3 00000000        631     DB  00,00,00,00,01H,80H,00,60H,04H,00,38H,00,00,00,00,00
0FE7 01800060                
0FEB 04003800                
0FEF 00000000                
                     632     
0FF3 00000000        633     DB  00,00,00,00,03H,0E0H,30H,78H,0FH,00,78H,00,00,00,00,00
0FF7 03E03078                
0FFB 0F007800                
0FFF 00000000                
1003 00000000        634     DB  00,00,00,00,06H,0A0H,38H,0F8H,0FH,00,78H,0FFH,0E0H,00,00,00
A51 MACRO ASSEMBLER  12864_CHS                                                            03/29/2005 16:03:58 PAGE    20

1007 06A038F8                
100B 0F0078FF                
100F E0000000                
1013 00000000        635     DB  00,00,00,00,1DH,20H,3CH,18H,0EH,00,60H,80H,10H,00,00,00
1017 1D203C18                
101B 0E006080                
101F 10000000                
1023 00000000        636     DB  00,00,00,00,19H,30H,07H,00,08H,00,40H,80H,18H,00,00,00
1027 19300700                
102B 08004080                
102F 18000000                
1033 00000000        637     DB  00,00,00,00,30H,10H,07H,0FH,0F8H,00,00,40H,0CH,00,00,00
1037 3010070F                
103B F8000040                
103F 0C000000                
1043 00000000        638     DB  00,00,00,00,60H,0F0H,00,7FH,8CH,00,00,40H,03H,00,00,00
1047 60F0007F                
104B 8C000040                
104F 03000000                
1053 00000000        639     DB  00,00,00,00,0C1H,80,01H,0C0H,0F7H,0F0H,00,40H,01H,80H,00,00
1057 C15001C0                
105B F7F00040                
105F 01800000                
1063 00000001        640     DB  00,00,00,01H,86H,03H,0FFH,00,10H,1CH,00,0C0H,00,0C0H,00,00
1067 8603FF00                
106B 101C00C0                
106F 00C00000                
1073 00000001        641     DB  00,00,00,01H,04H,3FH,0FFH,0C0H,10H,01H,0C0H,0C0H,40H,70H,0FH,00
1077 043FFFC0                
107B 1001C0C0                
107F 40700F00                
1083 00000001        642     DB  00,00,00,01H,0FH,0FFH,0FFH,0F3H,0DFH,0F8H,70H,80H,60H,1EH,7FH,00
1087 0FFFFFF3                
108B DFF87080                
108F 601E7F00                
1093 00003C01        643     DB  00,00,3CH,01H,8FH,0FFH,0FFH,0FFH,0C0H,02H,18H,80H,40H,02H,00,00
1097 8FFFFFFF                
109B C0021880                
109F 40020000                
10A3 00001F00        644     DB  00,00,1FH,00,0FFH,0FFH,0FFH,0FFH,38H,03H,86H,80H,0C0H,01H,00,00
10A7 FFFFFFFF                
10AB 38038680                
10AF C0010000                
10B3 000003E0        645     DB  00,00,03H,0E0H,0FFH,0FFH,0FFH,0FFH,0F8H,00,83H,00,0C0H,01H,80H,00
10B7 FFFFFFFF                
10BB F8008300                
10BF C0018000                
10C3 00000000        646     DB  00,00,00,00,3FH,0FFH,0FFH,0FFH,0E0H,00,83H,03H,80H,00,80H,00
10C7 3FFFFFFF                
10CB E0008303                
10CF 80008000                
10D3 000FF000        647     DB  00,0FH,0F0H,00H,7FH,0FFH,0FFH,0FFH,0F8H,00,83H,07H,02H,00,80,00
10D7 7FFFFFFF                
10DB F8008307                
10DF 02005000                
10E3 0003E000        648     DB  00,03H,0E0H,00,7FH,0F0H,07H,0FFH,0FCH,01H,83H,0FEH,06H,03H,80H,00
10E7 7FF007FF                
10EB FC0183FE                
10EF 06038000                
10F3 00000000        649     DB  00,00,00,00,7FH,0F8H,01H,0FFH,0FEH,01H,02H,06H,0EH,0FH,80H,00
10F7 7FF801FF                
10FB FE010206                
10FF 0E0F8000                
1103 00000000        650     DB  00,00,00,00,7FH,0FCH,00H,7FH,0FFH,0FFH,0EH,03H,1CH,0EH,00,00
1107 7FFC007F                
110B FFFF0E03                
A51 MACRO ASSEMBLER  12864_CHS                                                            03/29/2005 16:03:58 PAGE    21

110F 1C0E0000                
1113 00000000        651     DB  00,00,00,00,7FH,0FFH,00,7FH,0FFH,0F8H,00,01H,0E8H,0C6H,00,00
1117 7FFF007F                
111B FFF80001                
111F E8C60000                
1123 0003FFC0        652     DB  00,03H,0FFH,0C0H,7FH,0FFH,0C0H,3FH,0FFH,0FCH,00,00H,63H,83H,00,00
1127 7FFFC03F                
112B FFFC0000                
112F 63830000                
1133 0001FE00        653     DB  00,01H,0FEH,00,3FH,0FFH,0F8H,3FH,0FFH,0FFH,80H,00,3EH,03H,00,00
1137 3FFFF83F                
113B FFFF8000                
113F 3E030000                
1143 00000000        654     DB  00,00,00,00,1FH,0FFH,0FEH,1FH,0FFH,0FFH,0C0H,00,1CH,01H,80H,00
1147 1FFFFE1F                
114B FFFFC000                
114F 1C018000                
1153 00000000        655     DB  00,00,00,00,1FH,0FFH,0FFH,0FFH,0FFH,0FFH,0F0H,00,0CH,00,80H,00
1157 1FFFFFFF                
115B FFFFF000                
115F 0C008000                
1163 00000000        656     DB  00,00,00,00,0FH,0FFH,0FFH,0FFH,0FFH,0FFH,0F0H,00,07H,0F0H,80H,00
1167 0FFFFFFF                
116B FFFFF000                
116F 07F08000                
1173 00000000        657     DB  00,00,00,00,0FH,0FFH,0FFH,0FFH,0FFH,0FFH,0FCH,00,03H,80H,80H,0FEH
1177 0FFFFFFF                
117B FFFFFC00                
117F 038080FE                
1183 00000000        658     DB  00,00,00,00,18H,0FFH,0FFH,0FFH,0FFH,0FFH,0FCH,00,1FH,0C0H,83H,82H
1187 18FFFFFF                
118B FFFFFC00                
118F 1FC08382                
1193 00000000        659     DB  00,00,00,00,33H,0BFH,0FFH,0FFH,0FFH,0FFH,0C4H,00,41H,0FFH,0FEH,06H
1197 33BFFFFF                
119B FFFFC400                
119F 41FFFE06                
11A3 00000000        660     DB  00,00,00,00,0E6H,0FH,0FFH,0FFH,0FFH,0FFH,0FH,00,70H,00,00,3CH
11A7 E60FFFFF                
11AB FFFF0F00                
11AF 7000003C                
11B3 00000001        661     DB  00,00,00,01H,8CH,0DH,0FFH,0FFH,0FFH,0F8H,09H,80H,1FH,0E0H,00,3CH
11B7 8C0DFFFF                
11BB FFF80980                
11BF 1FE0003C                
11C3 00000003        662     DB  00,00,00,03H,1FH,8EH,00,0FFH,0FFH,80H,19H,80H,00,3FH,0F0H,04H
11C7 1F8E00FF                
11CB FF801980                
11CF 003FF004                
11D3 0000000C        663     DB  00,00,00,0CH,77H,0F3H,0E0H,07H,0FFH,00,71H,80H,00,33H,18H,04H
11D7 77F3E007                
11DB FF007180                
11DF 00331804                
11E3 00000039        664     DB  00,00,00,39H,0C7H,0E0H,38H,00,00,00,0C1H,80H,00,22H,04H,0CH
11E7 C7E03800                
11EB 0000C180                
11EF 0022040C                
11F3 00000067        665     DB  00,00,00,67H,07H,0C0H,0FH,00,00,07H,81H,80H,00,46H,03H,0F8H
11F7 07C00F00                
11FB 00078180                
11FF 004603F8                
1203 000003FC        666     DB  00,00,03H,0FCH,07H,0FCH,00,0E0H,00,0CH,01H,80H,00,1CH,00,00
1207 07FC00E0                
120B 000C0180                
120F 001C0000                
1213 00FC07E0        667     DB  00,0FCH,07H,0E0H,03H,0FFH,00,1FH,0FFH,0F0H,01H,80H,00,30H,00,00
A51 MACRO ASSEMBLER  12864_CHS                                                            03/29/2005 16:03:58 PAGE    22

1217 03FF001F                
121B FFF00180                
121F 00300000                
1223 3BFFFF80        668     DB  3BH,0FFH,0FFH,80H,00,0FFH,0C0H,00,00,00,01H,80H,00,60H,00,00
1227 00FFC000                
122B 00000180                
122F 00600000                
1233 7FFFF8F8        669     DB  7FH,0FFH,0F8H,0F8H,00,7FH,0F8H,00,00,00,03H,0C0H,00,60H,00,00
1237 007FF800                
123B 000003C0                
123F 00600000                
1243 7FFFFE0E        670     DB  7FH,0FFH,0FEH,0EH,00,3FH,0FEH,00,00,00,0FH,0C0H,00,0C0H,00,00
1247 003FFE00                
124B 00000FC0                
124F 00C00000                
1253 3FFFF9FC        671     DB  3FH,0FFH,0F9H,0FCH,0FFH,0CFH,0FFH,80,00,00,1FH,0C0H,00,80H,00,00
1257 FFCFFF50                
125B 00001FC0                
125F 00800000                
1263 07FFC07B        672     DB  07H,0FFH,0C0H,7BH,0E0H,7FH,0FFH,0E0H,00,00,3FH,00,03H,87H,0FFH,0E0H
1267 E07FFFE0                
126B 00003F00                
126F 0387FFE0                
1273 000001C0        673     DB  00,00,01H,0C0H,3FH,83H,0FFH,0FEH,00H,03H,0FEH,00,0EH,04H,7FH,0E0H
1277 3F83FFFE                
127B 0003FE00                
127F 0E047FE0                
1283 00000700        674     DB  00,00,07H,00,00,7EH,0FH,0FFH,0FFH,0FFH,0FCH,00,38H,00,7FH,00
1287 007E0FFF                
128B FFFFFC00                
128F 38007F00                
1293 00001F00        675     DB  00,00,1FH,00,00,7FH,0FEH,7FH,0FFH,0FFH,0F8H,00,60H,00,00,00
1297 007FFE7F                
129B FFFFF800                
129F 60000000                
12A3 00003FE0        676     DB  00,00,3FH,0E0H,07H,0FFH,83H,0FFH,0DFH,0FFH,0C0H,01H,80H,00,00,00
12A7 07FF83FF                
12AB DFFFC001                
12AF 80000000                
12B3 00003FFC        677     DB  00,00,3FH,0FCH,7CH,7FH,0C0H,00,3FH,0FDH,00,03H,00,00,00,00
12B7 7C7FC000                
12BB 3FFD0003                
12BF 00000000                
12C3 00007FFF        678     DB  00,00,7FH,0FFH,80H,7FH,0E0H,00,00,06H,03H,0FEH,00,00,00,00
12C7 807FE000                
12CB 000603FE                
12CF 00000000                
12D3 0000FFFF        679     DB  00,00,0FFH,0FFH,80H,7FH,0E0H,00,03H,0E3H,07H,0E0H,00,00,00,00
12D7 807FE000                
12DB 03E307E0                
12DF 00000000                
12E3 0000FFFE        680     DB  00,00,0FFH,0FEH,00,3FH,0E0H,00,3EH,3FH,8CH,00,00,00,00,00
12E7 003FE000                
12EB 3E3F8C00                
12EF 00000000                
12F3 0000FFFE        681     DB  00,00,0FFH,0FEH,00,08H,60H,00,0E0H,0BH,0FFH,80H,00,00,00,00
12F7 00086000                
12FB E00BFF80                
12FF 00000000                
1303 00007FFF        682     DB  00,00,7FH,0FFH,00,38H,60H,01H,80H,7FH,0F8H,0FFH,00,00,00,00
1307 00386001                
130B 807FF8FF                
130F 00000000                
1313 00007FFF        683     DB  00,00,7FH,0FFH,0FFH,0C0H,0E0H,00,0F0H,0C0H,1EH,00,0C0H,00,00,00
1317 FFC0E000                
131B F0C01E00                
A51 MACRO ASSEMBLER  12864_CHS                                                            03/29/2005 16:03:58 PAGE    23

131F C0000000                
1323 00003000        684     DB  00,00,30H,00,0FH,0E0H,0C0H,00,67H,00,03H,0C6H,60H,00,00,00
1327 0FE0C000                
132B 670003C6                
132F 60000000                
1333 00001800        685     DB  00,00,18H,00,0FH,0FFH,80H,00,3CH,00,00,23H,30H,00,00,00
1337 0FFF8000                
133B 3C000023                
133F 30000000                
1343 00000C00        686     DB  00,00,0CH,00,0FH,0FFH,00,00,00,00,00,19H,10H,00,00,00
1347 0FFF0000                
134B 00000019                
134F 10000000                
1353 000003C0        687     DB  00,00,03H,0C0H,0FH,0F8H,00,00,00,00,00,08H,10H,00,00,00
1357 0FF80000                
135B 00000008                
135F 10000000                
1363 0000007F        688     DB  00,00,00,7FH,0FFH,0E0H,00,00,00,00,00,07H,0F0H,00,00,00
1367 FFE00000                
136B 00000007                
136F F0000000                
1373 0000000F        689     DB  00,00,00,0FH,0FCH,00,00,00,00,00,00,00,00,00,00,00
1377 FC000000                
137B 00000000                
137F 00000000                
1383 00000000        690     DB  00,00,00,00,00,00,00,00,00,00,00,00,00,00,00,00
1387 00000000                
138B 00000000                
138F 00000000                
1393 00000000        691     DB  00,00,00,00,00,00,00,00,00,00,00,00,00,00,00,00
1397 00000000                
139B 00000000                
139F 00000000                
13A3 00000000        692     DB  00,00,00,00,00,00,00,00,00,00,00,00,00,00,00,00
13A7 00000000                
13AB 00000000                
13AF 00000000                
13B3 00000000        693     DB  00,00,00,00,00,00,00,00,00,00,00,00,00,00,00,00
13B7 00000000                
13BB 00000000                
13BF 00000000                
                     694     
                     695                     END
A51 MACRO ASSEMBLER  12864_CHS                                                            03/29/2005 16:03:58 PAGE    24

SYMBOL TABLE LISTING
------ ----- -------


N A M E             T Y P E  V A L U E   ATTRIBUTES

CHK_BUSY . . . . .  C ADDR   02FFH   A   
CLEAR_P. . . . . .  C ADDR   02B1H   A   
CLRRAM . . . . . .  C ADDR   022AH   A   
COUNT. . . . . . .  N NUMB   0032H   A   
COUNT1 . . . . . .  N NUMB   0033H   A   
COUNT2 . . . . . .  N NUMB   0034H   A   
COUNT3 . . . . . .  N NUMB   0035H   A   
DEL11. . . . . . .  C ADDR   0326H   A   
DEL12. . . . . . .  C ADDR   0328H   A   
DEL21. . . . . . .  C ADDR   031DH   A   
DEL22. . . . . . .  C ADDR   031FH   A   
DEL31. . . . . . .  C ADDR   0310H   A   
DEL32. . . . . . .  C ADDR   0312H   A   
DEL33. . . . . . .  C ADDR   0314H   A   
DEL41. . . . . . .  C ADDR   032FH   A   
DEL42. . . . . . .  C ADDR   0331H   A   
DEL51. . . . . . .  C ADDR   0338H   A   
DEL52. . . . . . .  C ADDR   033AH   A   
DEL53. . . . . . .  C ADDR   033CH   A   
DELAY1 . . . . . .  C ADDR   0324H   A   
DELAY2 . . . . . .  C ADDR   031BH   A   
DELAY3 . . . . . .  C ADDR   030EH   A   
DELAY4 . . . . . .  C ADDR   032DH   A   
DELAY5 . . . . . .  C ADDR   0336H   A   
E. . . . . . . . .  B ADDR   00A0H.2 A   
F0 . . . . . . . .  B ADDR   00D0H.5 A   
FLASH. . . . . . .  C ADDR   0288H   A   
HAN_WR1. . . . . .  C ADDR   012FH   A   
HAN_WR2. . . . . .  C ADDR   0146H   A   
HAN_WR2A . . . . .  C ADDR   0149H   A   
HAN_WR2B . . . . .  C ADDR   0157H   A   
HAN_WR2C . . . . .  C ADDR   0165H   A   
HAN_WR2D . . . . .  C ADDR   0173H   A   
KU_PLAY1 . . . . .  C ADDR   01BBH   A   
KU_PLAY2 . . . . .  C ADDR   01D6H   A   
KU_PLAY21. . . . .  C ADDR   01E3H   A   
LATPLAY1 . . . . .  C ADDR   01A7H   A   
LATPLAY11. . . . .  C ADDR   01C8H   A   
LAT_DISP . . . . .  C ADDR   0234H   A   
LAT_DISP1. . . . .  C ADDR   023AH   A   
LAT_DISP2. . . . .  C ADDR   0242H   A   
LAT_DISP3. . . . .  C ADDR   0248H   A   
LAT_DISP31 . . . .  C ADDR   0253H   A   
LAT_DISP32 . . . .  C ADDR   0250H   A   
LCD_DATA . . . . .  N NUMB   0036H   A   
LCD_DATA1. . . . .  N NUMB   0037H   A   
LCD_DATA2. . . . .  N NUMB   0038H   A   
LCD_X. . . . . . .  N NUMB   0030H   A   
LCD_Y. . . . . . .  N NUMB   0031H   A   
LGS0 . . . . . . .  C ADDR   010DH   A   
MAIN . . . . . . .  C ADDR   0100H   A   
P0 . . . . . . . .  D ADDR   0080H   A   
P2 . . . . . . . .  D ADDR   00A0H   A   
PHO_DISP . . . . .  C ADDR   01F9H   A   
PHO_DISP1. . . . .  C ADDR   01FFH   A   
PHO_DISP2. . . . .  C ADDR   0205H   A   
PHO_DISP3. . . . .  C ADDR   020BH   A   
PSB. . . . . . . .  B ADDR   00A0H.3 A   
QUSHU. . . . . . .  C ADDR   02C1H   A   
READ_D . . . . . .  C ADDR   02EEH   A   
A51 MACRO ASSEMBLER  12864_CHS                                                            03/29/2005 16:03:58 PAGE    25

RS . . . . . . . .  B ADDR   00A0H.0 A   
RST. . . . . . . .  B ADDR   00A0H.5 A   
RW . . . . . . . .  B ADDR   00A0H.1 A   
SEND_D . . . . . .  C ADDR   02CEH   A   
SEND_I . . . . . .  C ADDR   02DEH   A   
SP . . . . . . . .  D ADDR   0081H   A   
STORE. . . . . . .  N NUMB   0039H   A   
TAB1 . . . . . . .  C ADDR   0343H   A   
TAB1A. . . . . . .  C ADDR   0343H   A   
TAB1B. . . . . . .  C ADDR   0363H   A   
TAB1C. . . . . . .  C ADDR   0353H   A   
TAB1D. . . . . . .  C ADDR   0373H   A   
TAB3 . . . . . . .  C ADDR   0383H   A   
TU_PLAY1 . . . . .  C ADDR   0126H   A   
TU_PLAY2 . . . . .  C ADDR   0195H   A   
TU_PLAY3 . . . . .  C ADDR   019EH   A   
TU_TAB1. . . . . .  C ADDR   03C3H   A   
TU_TAB2. . . . . .  C ADDR   07C3H   A   
TU_TAB3. . . . . .  C ADDR   0BC3H   A   
TU_TAB4. . . . . .  C ADDR   0FC3H   A   
WR_ZB. . . . . . .  C ADDR   0273H   A   


REGISTER BANK(S) USED: 0 


ASSEMBLY COMPLETE.  0 WARNING(S), 0 ERROR(S)
