A51 MACRO ASSEMBLER  WL028                                                                08/19/2005 13:36:45 PAGE     1


MACRO ASSEMBLER A51 V7.10
OBJECT MODULE PLACED IN wl028.OBJ
ASSEMBLER INVOKED BY: C:\Keil\C51\BIN\A51.EXE wl028.asm SET(SMALL) DEBUG EP

LOC  OBJ            LINE     SOURCE

                       1     ;********************************************************************************
                       2     ;*  标题:  伟纳电子ME300B单片机开发系统演示程序 - 12864LCD(不带字库）滚动显示   *
                       3     ;*  文件:  wl028.asm                                                            *
                       4     ;*  日期:  2005-8-19                                                            *
                       5     ;*  版本:  1.0                                                                  *
                       6     ;*  作者:  gguoqing                                                             *
                       7     ;*  邮箱:  gguoqing@willar.com                                                  *
                       8     ;*  网站： http://www.willar.com                                                *
                       9     ;********************************************************************************
                      10     ;*  描述:                                                                       *
                      11     ;*          TS12864A-2 上下滚动显示演示程序                                     *
                      12     ;*                                                                              *
                      13     ;*          有规律地改变显示起始行，实现显示滚动的效果                          *
                      14     ;*                                                                              *
                      15     ;*                                                                              *
                      16     ;********************************************************************************
                      17     ;* 【版权】 Copyright(C)伟纳电子 www.willar.com  All Rights Reserved            *
                      18     ;* 【声明】 此程序仅用于学习与参考，引用请注明版权和作者信息！                  *
                      19     ;********************************************************************************
                      20     
  00A4                21               CS2  BIT  P2.4
  00A3                22               CS1  BIT  P2.3
  00A2                23               E    BIT  P2.2
  00A1                24               R_W  BIT  P2.1
  00A0                25               D_I  BIT  P2.0
  00A5                26               RST  BIT  P2.5
  0020                27               COM  EQU  20H ; 指令寄存器
  0021                28               DAT  EQU  21H ; 数据寄存器
                      29     
  0094                30               K1   EQU  P1.4
  0095                31               K2   EQU  P1.5
  0096                32               K3   EQU  P1.6
  0097                33               K4   EQU  P1.7
  00B7                34               BEEP  EQU  P3.7
                      35     
0000                  36               ORG 0000H
0000 0150             37               AJMP MAIN
                      38     
                      39     ;------------------------------------------
0050                  40               ORG 0050H
0050                  41     MAIN:
0050 758150           42               mov  sp,#50h
0053 D2A5             43               SETB RST          ;
                      44     
0055 75203E           45               MOV COM,#3EH      ;关显示
0058 120222           46               LCALL WRITE_I
005B 120219           47               LCALL DELLY
005E 75203F           48               MOV COM,#3FH      ;开显示
0061 120222           49               LCALL WRITE_I
0064 120219           50               LCALL DELLY
                      51     
0067 C2A4             52               CLR CS2           ;清左半屏
0069 D2A3             53               SETB CS1
006B 12019D           54               LCALL CLEAR
006E C2A3             55               CLR CS1           ;清右半屏
0070 D2A4             56               SETB CS2
0072 12019D           57               LCALL CLEAR
                      58     
A51 MACRO ASSEMBLER  WL028                                                                08/19/2005 13:36:45 PAGE     2

                      59     ;==========================================
                      60     ;写左半屏
                      61     ;(R3)=页地址, (R4)= 列地址
                      62     ;=========================================
0075 C2A4             63               CLR CS2             ;欢
0077 D2A3             64               SETB CS1
0079 90027E           65               MOV DPTR,#HZ101
007C 7BB8             66               MOV R3,#0B8H       ;页地址
007E 7C60             67               MOV R4,#60H        ;列地址
0080 1201CB           68               LCALL HZSHOW
                      69     
0083 90029E           70               MOV DPTR,#HZ102    ;迎
0086 7BB8             71               MOV R3,#0B8H
0088 7C70             72               MOV R4,#70H
008A 1201CB           73               LCALL HZSHOW
                      74     
008D 9002FE           75               MOV DPTR,#ZM01     ;M
0090 7BBA             76               MOV R3,#0BAH
0092 7C50             77               MOV R4,#50H
0094 1201F2           78               LCALL YWSHOW
                      79     
0097 900316           80               MOV DPTR,#ZM02     ;E
009A 7BBA             81               MOV R3,#0BAH
009C 7C60             82               MOV R4,#60H
009E 1201F2           83               LCALL YWSHOW
                      84     
00A1 90032E           85               MOV DPTR,#ZM03     ;3
00A4 7BBA             86               MOV R3,#0BAH
00A6 7C70             87               MOV R4,#70H
00A8 1201F2           88               LCALL YWSHOW
                      89     
00AB 900376           90               MOV DPTR,#HZ301   ;单
00AE 7BBC             91               MOV R3,#0BCH
00B0 7C40             92               MOV R4,#40H
00B2 1201CB           93               LCALL HZSHOW
                      94     
00B5 900396           95               MOV DPTR,#HZ302   ;片
00B8 7BBC             96               MOV R3,#0BCH
00BA 7C50             97               MOV R4,#50H
00BC 1201CB           98               LCALL HZSHOW
                      99     
00BF 9003B6          100               MOV DPTR,#HZ303   ;机
00C2 7BBC            101               MOV R3,#0BCH
00C4 7C60            102               MOV R4,#60H
00C6 1201CB          103               LCALL HZSHOW
                     104     
00C9 9003D6          105               MOV DPTR,#HZ304   ;开
00CC 7BBC            106               MOV R3,#0BCH
00CE 7C70            107               MOV R4,#70H
00D0 1201CB          108               LCALL HZSHOW
                     109     
                     110     ;==========================================
                     111     ;写右半屏
                     112     ;(R3)=页地址, (R4)= 列地址
                     113     ;=========================================
                     114               ;LCALL DELLY
00D3 C2A3            115               CLR CS1             ;使
00D5 D2A4            116               SETB CS2
00D7 9002BE          117               MOV DPTR,#HZ103
00DA 7BB8            118               MOV R3,#0B8H         ;页地址
00DC 7C40            119               MOV R4,#40H          ;列地址
00DE 1201CB          120               LCALL HZSHOW
                     121     
00E1 9002DE          122               MOV DPTR,#HZ104    ;用
00E4 7BB8            123               MOV R3,#0B8H
00E6 7C50            124               MOV R4,#50H
A51 MACRO ASSEMBLER  WL028                                                                08/19/2005 13:36:45 PAGE     3

00E8 1201CB          125               LCALL HZSHOW
                     126     
00EB 900346          127               MOV DPTR,#ZM04     ;0
00EE 7BBA            128               MOV R3,#0BAH
00F0 7C40            129               MOV R4,#40H
00F2 1201F2          130               LCALL YWSHOW
                     131     
00F5 900346          132               MOV DPTR,#ZM04     ;0
00F8 7BBA            133               MOV R3,#0BAH
00FA 7C50            134               MOV R4,#50H
00FC 1201F2          135               LCALL YWSHOW
                     136     
00FF 90035E          137               MOV DPTR,#ZM05     ;B
0102 7BBA            138               MOV R3,#0BAH
0104 7C60            139               MOV R4,#60H
0106 1201F2          140               LCALL YWSHOW
                     141     
0109 9003F6          142               MOV DPTR,#HZ305   ;发
010C 7BBC            143               MOV R3,#0BCH
010E 7C40            144               MOV R4,#40H
0110 1201CB          145               LCALL HZSHOW
                     146     
0113 900416          147               MOV DPTR,#HZ306   ;系
0116 7BBC            148               MOV R3,#0BCH
0118 7C50            149               MOV R4,#50H
011A 1201CB          150               LCALL HZSHOW
                     151     
011D 900436          152               MOV DPTR,#HZ307   ;统
0120 7BBC            153               MOV R3,#0BCH
0122 7C60            154               MOV R4,#60H
0124 1201CB          155               LCALL HZSHOW
                     156     
0127 900456          157               MOV DPTR,#HZ308   ;板
012A 7BBC            158               MOV R3,#0BCH
012C 7C70            159               MOV R4,#70H
012E 1201CB          160               LCALL HZSHOW
                     161     
0131 3135            162     MAIN1:    call  SCAN_KEY
0133 80FC            163               JMP  MAIN1
                     164     ;－－－－－－－－－－－－－－－－－－－－－－－
                     165     ;功能键子程序
                     166     ;－－－－－－－－－－－－－－－－－－－－－－－
0135                 167     SCAN_KEY:
0135 209405          168               JB  K1, KEY2
0138 5160            169               CALL  BEEP_BL
013A 12016F          170               LCALL  MOVE_UP
                     171     
013D 209505          172     KEY2:     JB  K2, KEY3
0140 5160            173               CALL BEEP_BL
0142 12014D          174               LCALL  MOVE_DOWN
                     175     
0145 209604          176     KEY3:     JB  K3,KEY4
0148 5160            177               CALL  BEEP_BL
014A 0150            178               jmp  MAIN
014C 22              179     KEY4:     RET
                     180     ;－－－－－－－－－－－－－－－－－－－－－－－－
                     181     ;向下滚动子程序
                     182     ;有规律地改变显示起始行地址，实现显示滚动的效果。
                     183     ;－－－－－－－－－－－－－－－－－－－－－－－－
014D                 184     MOVE_DOWN:
014D 7F3F            185               MOV  R7,#03FH    ;偏移数
014F                 186     MOVE_DOWN1:
014F 74C0            187               MOV  A,#0C0H     ;显示起始行设置代码
0151 4F              188               ORL  A,R7        ;与偏移数相或，得新的地址
0152 C2A4            189               CLR CS2
0154 D2A3            190               SETB CS1         ;写左半屏
A51 MACRO ASSEMBLER  WL028                                                                08/19/2005 13:36:45 PAGE     4

0156 F520            191               MOV  COM,A
0158 120222          192               LCALL WRITE_I
015B B2A3            193               CPL CS1
015D B2A4            194               CPL CS2          ;写右半屏
015F F520            195               MOV COM,A
0161 120222          196               LCALL WRITE_I
0164 120193          197               LCALL  DELAY1
0167 120145          198               lcall  key3
016A DFE3            199               DJNZ  R7,MOVE_DOWN1  ;偏移数减1
016C 02014D          200               LJMP  MOVE_DOWN
                     201     
                     202     ;－－－－－－－－－－－－－－－－－－－－－－
                     203     ;向上滚屏子程序
                     204     ;有规律地改变显示起始行，实现显示滚屏的效果。
                     205     ;－－－－－－－－－－－－－－－－－－－－－－
016F                 206     MOVE_UP:
016F 7F00            207               MOV  R7,#00H
0171                 208     MOVE_UP1:
0171 74C0            209               MOV  A,#0C0H       ;显示起始行设置代码
0173 4F              210               ORL  A,R7          ;与偏移数相或，得新的地址
0174 C2A4            211               CLR CS2
0176 D2A3            212               SETB CS1           ;写左半屏
0178 F520            213               MOV  COM,A
017A 120222          214               LCALL WRITE_I
017D B2A3            215               CPL CS1
017F B2A4            216               CPL CS2            ;写右半屏
0181 F520            217               MOV COM,A
0183 120222          218               LCALL WRITE_I
0186 120193          219               LCALL  DELAY1
0189 120145          220               lcall  key3
018C 0F              221               INC  R7              ;偏移数加1
018D B4FFE1          222               CJNE  A,#0FFH,MOVE_UP1
0190 02016F          223               LJMP  MOVE_UP
                     224     
                     225     ;－－－－－－－－－－－－－－－－－－－－－－
                     226     ;调整此延时时间，可改变滚屏速度
                     227     ;－－－－－－－－－－－－－－－－－－－－－－
0193                 228      DELAY1:
0193 7E60            229               MOV  R6,#060H
0195 7D00            230               MOV  R5,#00H
0197 00              231      DELAY2:  NOP
0198 DDFD            232               DJNZ  R5,DELAY2
019A DEFB            233               DJNZ  R6,DELAY2
019C 22              234               RET
                     235     
                     236     ;=========================================
                     237     ;清屏子程序
                     238     ;========================================
019D                 239     CLEAR:
019D 7BB8            240               MOV R3,#0B8H
019F 8B20            241               MOV COM,R3
01A1 120222          242               LCALL WRITE_I
01A4 752040          243               MOV COM,#40H
01A7 120222          244               LCALL WRITE_I
01AA 7900            245               MOV R1,#00H
01AC 7A00            246               MOV R2,#00H
01AE 752100          247     CLEAR1:   MOV DAT,#00H
01B1 120240          248               LCALL WRITE_D
01B4 09              249               INC R1
01B5 B940F6          250               CJNE R1,#40H,CLEAR1
01B8 7900            251               MOV R1,#00H
01BA 0A              252               INC R2
01BB 0B              253               INC R3
01BC 8B20            254               MOV COM,R3
01BE 120222          255               LCALL WRITE_I
01C1 752040          256               MOV COM,#40H
A51 MACRO ASSEMBLER  WL028                                                                08/19/2005 13:36:45 PAGE     5

01C4 120222          257               LCALL WRITE_I
01C7 BA08E4          258               CJNE R2,#08H,CLEAR1
01CA 22              259               RET
                     260     
                     261     ;=========================================
                     262     ;16*16汉字显示的子程序
                     263     ;=========================================
01CB                 264     HZSHOW:
01CB 8B20            265               MOV COM,R3
01CD 120222          266               LCALL WRITE_I
01D0 8C20            267               MOV COM,R4
01D2 120222          268               LCALL WRITE_I
01D5 7A20            269               MOV R2,#20H
01D7 7900            270               MOV R1,#00H
01D9 BA100B          271     LOOP:     CJNE R2,#10H,LOOP1
01DC 0B              272               INC R3
01DD 8B20            273               MOV COM,R3
01DF 120222          274               LCALL WRITE_I
01E2 8C20            275               MOV COM,R4
01E4 120222          276               LCALL WRITE_I
01E7 E9              277     LOOP1:    MOV A,R1
01E8 93              278               MOVC A,@A+DPTR
01E9 F521            279               MOV DAT,A
01EB 120240          280               LCALL WRITE_D
01EE 09              281               INC R1
01EF DAE8            282               DJNZ R2,LOOP
01F1 22              283               RET
                     284     
                     285     ;==========================================
                     286     ;12*16英文显示的子程序
                     287     ;==========================================
01F2                 288     YWSHOW:
01F2 8B20            289               MOV COM,R3
01F4 120222          290               LCALL WRITE_I
01F7 8C20            291               MOV COM,R4
01F9 120222          292               LCALL WRITE_I
01FC 7A18            293               MOV R2,#18H
01FE 7900            294               MOV R1,#00H
0200 BA0C0B          295     LOOP2:    CJNE R2,#0CH,LOOP22
0203 0B              296               INC R3
0204 8B20            297               MOV COM,R3
0206 120222          298               LCALL WRITE_I
0209 8C20            299               MOV COM,R4
020B 120222          300               LCALL WRITE_I
020E E9              301     LOOP22:   MOV A,R1
020F 93              302               MOVC A,@A+DPTR
0210 F521            303               MOV DAT,A
0212 120240          304               LCALL WRITE_D
0215 09              305               INC R1
0216 DAE8            306               DJNZ R2,LOOP2
0218 22              307               RET
                     308     
                     309     ;=========================================
                     310     ;延时
                     311     ;=========================================
0219                 312     DELLY:
0219 7FA8            313               MOV R7,#0A8H
021B 7EFF            314       MS2:    MOV R6,#0FFH
021D DEFE            315       MS1:    DJNZ R6,MS1
021F DFFA            316               DJNZ R7,MS2
0221 22              317               RET
                     318     
                     319     ;==========================================
                     320     ;写指令子程序
                     321     ;==========================================
0222                 322     WRITE_I:
A51 MACRO ASSEMBLER  WL028                                                                08/19/2005 13:36:45 PAGE     6

0222 F8              323               MOV R0,A
0223 C2A0            324               CLR D_I
0225 D2A1            325               SETB R_W
0227                 326     WRITE_IA:
0227 7580FF          327               MOV P0,#0FFH
022A D2A2            328               SETB E
022C E580            329               MOV  A,P0       ;读状态字
022E C2A2            330               CLR  E
0230 20E7F4          331               JB  ACC.7,WRITE_IA  ;判“忙”标志是否为“0”
0233 C2A1            332               CLR  R_W
0235 852080          333               MOV  P0,COM     ;写指令代码
0238 D2A2            334               SETB  E
023A 00              335               NOP
023B 00              336               NOP
023C C2A2            337               CLR E
023E E8              338               MOV A,R0
023F 22              339               RET
                     340     
                     341     ;=========================================
                     342     ;写数据子程序
                     343     ;=========================================
0240                 344     WRITE_D:
0240 F8              345               MOV R0,A
0241 C2A0            346               CLR D_I
0243 D2A1            347               SETB R_W
0245                 348     WRITE_DA:
0245 7580FF          349               MOV P0,#0FFH
0248 D2A2            350               SETB E
024A E580            351               MOV  A,P0        ;读状态字
024C C2A2            352               CLR  E
024E 20E7F4          353               JB  ACC.7,WRITE_DA   ;判“忙”标志是否为“0”
0251 D2A0            354               SETB D_I
0253 C2A1            355               CLR R_W
0255 852180          356               MOV P0,DAT       ;写数据
0258 D2A2            357               SETB  E
025A 00              358               NOP
025B 00              359               NOP
025C C2A2            360               CLR E
025E E8              361               MOV A,R0
025F 22              362               RET
                     363     ;-----------------------------------------------
                     364     ;蜂鸣器响一声子程序
                     365     ;-----------------------------------------------
0260                 366     BEEP_BL:
0260 7E64            367                MOV   R6,#100
0262 516D            368       BL1:     CALL  DEX1
0264 B2B7            369                CPL   BEEP
0266 DEFA            370                DJNZ  R6,BL1
0268 7D19            371                MOV   R5,#25
026A 3197            372                CALL  DELAY2
026C 22              373                RET
026D 7FB4            374      DEX1:     MOV   R7,#180
026F 00              375      DEX2:     NOP
0270 DFFD            376                DJNZ  R7,DEX2
0272 22              377                RET
0273                 378      DELAY3:                    ;延时R5×10MS
0273 7E32            379                MOV   R6,#50
0275 7F64            380       D1:      MOV   R7,#100
0277 DFFE            381                DJNZ  R7,$
0279 DEFA            382                DJNZ  R6,D1
027B DDF6            383                DJNZ  R5,DELAY3
027D 22              384                RET
                     385     
                     386     
                     387     
                     388     ;==================================================================================
A51 MACRO ASSEMBLER  WL028                                                                08/19/2005 13:36:45 PAGE     7

027E                 389     HZ101:
                     390     ;--  文字:  欢  --
                     391     ;--  宋体12;  此字体下对应的点阵为：宽X高=16X16   --
027E 14244484        392     DB  014H,024H,044H,084H,064H,01CH,020H,018H,00FH,0E8H,008H,008H,028H,018H,008H,000H
0282 641C2018                
0286 0FE80808                
028A 28180800                
028E 20104C43        393     DB  020H,010H,04CH,043H,043H,02CH,020H,010H,00CH,003H,006H,018H,030H,060H,020H,000H
0292 432C2010                
0296 0C030618                
029A 30602000                
                     394     
029E                 395     HZ102:
                     396     ;--  文字:  迎  --
                     397     ;--  宋体12;  此字体下对应的点阵为：宽X高=16X16   --
029E 4041CE04        398     DB  040H,041H,0CEH,004H,000H,0FCH,004H,002H,002H,0FCH,004H,004H,004H,0FCH,000H,000H
02A2 00FC0402                
02A6 02FC0404                
02AA 04FC0000                
02AE 40201F20        399     DB  040H,020H,01FH,020H,040H,047H,042H,041H,040H,05FH,040H,042H,044H,043H,040H,000H
02B2 40474241                
02B6 405F4042                
02BA 44434000                
                     400     
02BE                 401     HZ103:
                     402     ;--  文字:  使  --
                     403     ;--  宋体12;  此字体下对应的点阵为：宽X高=16X16   --
02BE 4020F01C        404     DB  040H,020H,0F0H,01CH,007H,0F2H,094H,094H,094H,0FFH,094H,094H,094H,0F4H,004H,000H
02C2 07F29494                
02C6 94FF9494                
02CA 94F40400                
02CE 00007F00        405     DB  000H,000H,07FH,000H,040H,041H,022H,014H,00CH,013H,010H,030H,020H,061H,020H,000H
02D2 40412214                
02D6 0C131030                
02DA 20612000                
                     406     
02DE                 407     HZ104:
                     408     ;--  文字:  用  --
                     409     ;--  宋体12;  此字体下对应的点阵为：宽X高=16X16   --
02DE 000000FE        410     DB  000H,000H,000H,0FEH,022H,022H,022H,022H,0FEH,022H,022H,022H,022H,0FEH,000H,000H
02E2 22222222                
02E6 FE222222                
02EA 22FE0000                
02EE 8040300F        411     DB  080H,040H,030H,00FH,002H,002H,002H,002H,0FFH,002H,002H,042H,082H,07FH,000H,000H
02F2 02020202                
02F6 FF020242                
02FA 827F0000                
                     412     
                     413     ;------------------------------------------------------------------------------------
02FE                 414     ZM01:
                     415     ;--  文字:  M  --
                     416     ;--  SYSTEM12;  此字体下对应的点阵为：宽X高=12X16   --
02FE 00F8F8E0        417     DB  000H,0F8H,0F8H,0E0H,080H,000H,000H,080H,0E0H,0F8H,0F8H,000H,000H,01FH,01FH,001H
0302 80000080                
0306 E0F8F800                
030A 001F1F01                
030E 071E1E07        418     DB  007H,01EH,01EH,007H,001H,01FH,01FH,000H
0312 011F1F00                
                     419     
0316                 420     ZM02:
                     421     ;--  文字:  E  --
                     422     ;--  SYSTEM12;  此字体下对应的点阵为：宽X高=12X16   --
0316 00F8F888        423     DB  000H,0F8H,0F8H,088H,088H,088H,088H,008H,000H,000H,000H,000H,000H,01FH,01FH,010H
031A 88888808                
031E 00000000                
0322 001F1F10                
A51 MACRO ASSEMBLER  WL028                                                                08/19/2005 13:36:45 PAGE     8

0326 10101010        424     DB  010H,010H,010H,010H,000H,000H,000H,000H
032A 00000000                
                     425     
032E                 426     ZM03:
                     427     ;--  文字:  3  --
                     428     ;--  SYSTEM12;  此字体下对应的点阵为：宽X高=12X16   --
032E 00101888        429     DB  000H,010H,018H,088H,088H,0F8H,070H,000H,000H,000H,000H,000H,000H,008H,018H,010H
0332 88F87000                
0336 00000000                
033A 00081810                
033E 101F0F00        430     DB  010H,01FH,00FH,000H,000H,000H,000H,000H
0342 00000000                
                     431     
0346                 432     ZM04:
                     433     ;--  文字:  0  --
                     434     ;--  SYSTEM12;  此字体下对应的点阵为：宽X高=12X16   --
0346 00F0F808        435     DB  000H,0F0H,0F8H,008H,008H,0F8H,0F0H,000H,000H,000H,000H,000H,000H,00FH,01FH,010H
034A 08F8F000                
034E 00000000                
0352 000F1F10                
0356 101F0F00        436     DB  010H,01FH,00FH,000H,000H,000H,000H,000H
035A 00000000                
                     437     
035E                 438     ZM05:
                     439     ;--  文字:  B  --
                     440     ;--  SYSTEM12;  此字体下对应的点阵为：宽X高=12X16   --
035E 00F8F888        441     DB  000H,0F8H,0F8H,088H,088H,088H,088H,0F8H,070H,000H,000H,000H,000H,01FH,01FH,010H
0362 888888F8                
0366 70000000                
036A 001F1F10                
036E 1010101F        442     DB  010H,010H,010H,01FH,00FH,000H,000H,000H
0372 0F000000                
                     443     
                     444     ;===================================================================================
0376                 445     HZ301:
                     446     ;--  文字:  单  --
                     447     ;--  宋体12;  此字体下对应的点阵为：宽X高=16X16   --
0376 0000F828        448     DB  000H,000H,0F8H,028H,029H,02EH,02AH,0F8H,028H,02CH,02BH,02AH,0F8H,000H,000H,000H
037A 292E2AF8                
037E 282C2B2A                
0382 F8000000                
0386 08080B09        449     DB  008H,008H,00BH,009H,009H,009H,009H,0FFH,009H,009H,009H,009H,00BH,008H,008H,000H
038A 090909FF                
038E 09090909                
0392 0B080800                
                     450     
0396                 451     HZ302:
                     452     ;--  文字:  片  --
                     453     ;--  宋体12;  此字体下对应的点阵为：宽X高=16X16   --
0396 000000FE        454     DB  000H,000H,000H,0FEH,010H,010H,010H,010H,010H,01FH,010H,010H,010H,018H,010H,000H
039A 10101010                
039E 101F1010                
03A2 10181000                
03A6 8040300F        455     DB  080H,040H,030H,00FH,001H,001H,001H,001H,001H,001H,001H,0FFH,000H,000H,000H,000H
03AA 01010101                
03AE 010101FF                
03B2 00000000                
                     456     
03B6                 457     HZ303:
                     458     ;--  文字:  机  --
                     459     ;--  宋体12;  此字体下对应的点阵为：宽X高=16X16   --
03B6 0808C8FF        460     DB  008H,008H,0C8H,0FFH,048H,088H,008H,000H,0FEH,002H,002H,002H,0FEH,000H,000H,000H
03BA 48880800                
03BE FE020202                
03C2 FE000000                
03C6 040300FF        461     DB  004H,003H,000H,0FFH,000H,041H,030H,00CH,003H,000H,000H,000H,03FH,040H,078H,000H
A51 MACRO ASSEMBLER  WL028                                                                08/19/2005 13:36:45 PAGE     9

03CA 0041300C                
03CE 03000000                
03D2 3F407800                
                     462     
03D6                 463     HZ304:
                     464     ;--  文字:  开  --
                     465     ;--  宋体12;  此字体下对应的点阵为：宽X高=16X16   --
03D6 40424242        466     DB  040H,042H,042H,042H,042H,0FEH,042H,042H,042H,042H,0FEH,042H,042H,042H,042H,000H
03DA 42FE4242                
03DE 4242FE42                
03E2 42424200                
03E6 00402010        467     DB  000H,040H,020H,010H,00CH,003H,000H,000H,000H,000H,07FH,000H,000H,000H,000H,000H
03EA 0C030000                
03EE 00007F00                
03F2 00000000                
                     468     
03F6                 469     HZ305:
                     470     ;--  文字:  发  --
                     471     ;--  宋体12;  此字体下对应的点阵为：宽X高=16X16   --
03F6 00103E10        472     DB  000H,010H,03EH,010H,010H,0F0H,09FH,090H,090H,092H,094H,01CH,010H,010H,010H,000H
03FA 10F09F90                
03FE 9092941C                
0402 10101000                
0406 40201088        473     DB  040H,020H,010H,088H,087H,041H,046H,028H,010H,028H,027H,040H,0C0H,040H,000H,000H
040A 87414628                
040E 10282740                
0412 C0400000                
                     474     
0416                 475     HZ306:
                     476     ;--  文字:  系  --
                     477     ;--  宋体12;  此字体下对应的点阵为：宽X高=16X16   --
0416 00000222        478     DB  000H,000H,002H,022H,0B2H,0AAH,066H,062H,022H,011H,04DH,081H,001H,001H,000H,000H
041A B2AA6662                
041E 22114D81                
0422 01010000                
0426 00402113        479     DB  000H,040H,021H,013H,009H,005H,041H,081H,07FH,001H,005H,009H,013H,062H,000H,000H
042A 09054181                
042E 7F010509                
0432 13620000                
                     480     
0436                 481     HZ307:
                     482     ;--  文字:  统  --
                     483     ;--  宋体12;  此字体下对应的点阵为：宽X高=16X16   --
0436 20302CA3        484     DB  020H,030H,02CH,0A3H,060H,010H,084H,0C4H,0A4H,09DH,086H,084H,0A4H,0C4H,084H,000H
043A 601084C4                
043E A49D8684                
0442 A4C48400                
0446 20222312        485     DB  020H,022H,023H,012H,012H,092H,040H,030H,00FH,000H,000H,03FH,040H,041H,070H,000H
044A 12924030                
044E 0F00003F                
0452 40417000                
                     486     
0456                 487     HZ308:
                     488     ;--  文字:  板  --
                     489     ;--  宋体12;  此字体下对应的点阵为：宽X高=16X16   --
0456 1010D0FF        490     DB  010H,010H,0D0H,0FFH,050H,090H,000H,0FEH,062H,0A2H,022H,021H,0A1H,061H,000H,000H
045A 509000FE                
045E 62A22221                
0462 A1610000                
0466 0403007F        491     DB  004H,003H,000H,07FH,000H,011H,00EH,041H,020H,011H,00AH,00EH,031H,060H,020H,000H
046A 00110E41                
046E 20110A0E                
0472 31602000                
                     492     
                     493     ;====================================================================================
                     494     
A51 MACRO ASSEMBLER  WL028                                                                08/19/2005 13:36:45 PAGE    10

                     495           END
                             
                             
A51 MACRO ASSEMBLER  WL028                                                                08/19/2005 13:36:45 PAGE    11

SYMBOL TABLE LISTING
------ ----- -------


N A M E             T Y P E  V A L U E   ATTRIBUTES

ACC. . . . . . . .  D ADDR   00E0H   A   
BEEP . . . . . . .  B ADDR   00B0H.7 A   
BEEP_BL. . . . . .  C ADDR   0260H   A   
BL1. . . . . . . .  C ADDR   0262H   A   
CLEAR. . . . . . .  C ADDR   019DH   A   
CLEAR1 . . . . . .  C ADDR   01AEH   A   
COM. . . . . . . .  N NUMB   0020H   A   
CS1. . . . . . . .  B ADDR   00A0H.3 A   
CS2. . . . . . . .  B ADDR   00A0H.4 A   
D1 . . . . . . . .  C ADDR   0275H   A   
DAT. . . . . . . .  N NUMB   0021H   A   
DELAY1 . . . . . .  C ADDR   0193H   A   
DELAY2 . . . . . .  C ADDR   0197H   A   
DELAY3 . . . . . .  C ADDR   0273H   A   
DELLY. . . . . . .  C ADDR   0219H   A   
DEX1 . . . . . . .  C ADDR   026DH   A   
DEX2 . . . . . . .  C ADDR   026FH   A   
D_I. . . . . . . .  B ADDR   00A0H.0 A   
E. . . . . . . . .  B ADDR   00A0H.2 A   
HZ101. . . . . . .  C ADDR   027EH   A   
HZ102. . . . . . .  C ADDR   029EH   A   
HZ103. . . . . . .  C ADDR   02BEH   A   
HZ104. . . . . . .  C ADDR   02DEH   A   
HZ301. . . . . . .  C ADDR   0376H   A   
HZ302. . . . . . .  C ADDR   0396H   A   
HZ303. . . . . . .  C ADDR   03B6H   A   
HZ304. . . . . . .  C ADDR   03D6H   A   
HZ305. . . . . . .  C ADDR   03F6H   A   
HZ306. . . . . . .  C ADDR   0416H   A   
HZ307. . . . . . .  C ADDR   0436H   A   
HZ308. . . . . . .  C ADDR   0456H   A   
HZSHOW . . . . . .  C ADDR   01CBH   A   
K1 . . . . . . . .  B ADDR   0090H.4 A   
K2 . . . . . . . .  B ADDR   0090H.5 A   
K3 . . . . . . . .  B ADDR   0090H.6 A   
K4 . . . . . . . .  B ADDR   0090H.7 A   
KEY2 . . . . . . .  C ADDR   013DH   A   
KEY3 . . . . . . .  C ADDR   0145H   A   
KEY4 . . . . . . .  C ADDR   014CH   A   
LOOP . . . . . . .  C ADDR   01D9H   A   
LOOP1. . . . . . .  C ADDR   01E7H   A   
LOOP2. . . . . . .  C ADDR   0200H   A   
LOOP22 . . . . . .  C ADDR   020EH   A   
MAIN . . . . . . .  C ADDR   0050H   A   
MAIN1. . . . . . .  C ADDR   0131H   A   
MOVE_DOWN. . . . .  C ADDR   014DH   A   
MOVE_DOWN1 . . . .  C ADDR   014FH   A   
MOVE_UP. . . . . .  C ADDR   016FH   A   
MOVE_UP1 . . . . .  C ADDR   0171H   A   
MS1. . . . . . . .  C ADDR   021DH   A   
MS2. . . . . . . .  C ADDR   021BH   A   
P0 . . . . . . . .  D ADDR   0080H   A   
P1 . . . . . . . .  D ADDR   0090H   A   
P2 . . . . . . . .  D ADDR   00A0H   A   
P3 . . . . . . . .  D ADDR   00B0H   A   
RST. . . . . . . .  B ADDR   00A0H.5 A   
R_W. . . . . . . .  B ADDR   00A0H.1 A   
SCAN_KEY . . . . .  C ADDR   0135H   A   
SP . . . . . . . .  D ADDR   0081H   A   
WRITE_D. . . . . .  C ADDR   0240H   A   
A51 MACRO ASSEMBLER  WL028                                                                08/19/2005 13:36:45 PAGE    12

WRITE_DA . . . . .  C ADDR   0245H   A   
WRITE_I. . . . . .  C ADDR   0222H   A   
WRITE_IA . . . . .  C ADDR   0227H   A   
YWSHOW . . . . . .  C ADDR   01F2H   A   
ZM01 . . . . . . .  C ADDR   02FEH   A   
ZM02 . . . . . . .  C ADDR   0316H   A   
ZM03 . . . . . . .  C ADDR   032EH   A   
ZM04 . . . . . . .  C ADDR   0346H   A   
ZM05 . . . . . . .  C ADDR   035EH   A   


REGISTER BANK(S) USED: 0 


ASSEMBLY COMPLETE.  0 WARNING(S), 0 ERROR(S)
